
avrcar.elf:     file format elf32-avr

Sections:
Idx Name          Size      VMA       LMA       File off  Algn
  0 .data         0000003a  00800100  000019e4  00001a78  2**0
                  CONTENTS, ALLOC, LOAD, DATA
  1 .text         000019e4  00000000  00000000  00000094  2**1
                  CONTENTS, ALLOC, LOAD, READONLY, CODE
  2 .bss          00000197  0080013a  0080013a  00001ab2  2**0
                  ALLOC
  3 .stab         000034ec  00000000  00000000  00001ab4  2**2
                  CONTENTS, READONLY, DEBUGGING
  4 .stabstr      00001660  00000000  00000000  00004fa0  2**0
                  CONTENTS, READONLY, DEBUGGING
  5 .comment      00000011  00000000  00000000  00006600  2**0
                  CONTENTS, READONLY

Disassembly of section .text:

00000000 <__vectors>:
       0:	0c 94 46 00 	jmp	0x8c	; 0x8c <__ctors_end>
       4:	0c 94 65 00 	jmp	0xca	; 0xca <__bad_interrupt>
       8:	0c 94 65 00 	jmp	0xca	; 0xca <__bad_interrupt>
       c:	0c 94 65 00 	jmp	0xca	; 0xca <__bad_interrupt>
      10:	0c 94 65 00 	jmp	0xca	; 0xca <__bad_interrupt>
      14:	0c 94 65 00 	jmp	0xca	; 0xca <__bad_interrupt>
      18:	0c 94 65 00 	jmp	0xca	; 0xca <__bad_interrupt>
      1c:	0c 94 65 00 	jmp	0xca	; 0xca <__bad_interrupt>
      20:	0c 94 65 00 	jmp	0xca	; 0xca <__bad_interrupt>
      24:	0c 94 65 00 	jmp	0xca	; 0xca <__bad_interrupt>
      28:	0c 94 65 00 	jmp	0xca	; 0xca <__bad_interrupt>
      2c:	0c 94 65 00 	jmp	0xca	; 0xca <__bad_interrupt>
      30:	0c 94 65 00 	jmp	0xca	; 0xca <__bad_interrupt>
      34:	0c 94 65 00 	jmp	0xca	; 0xca <__bad_interrupt>
      38:	0c 94 65 00 	jmp	0xca	; 0xca <__bad_interrupt>
      3c:	0c 94 65 00 	jmp	0xca	; 0xca <__bad_interrupt>
      40:	0c 94 65 00 	jmp	0xca	; 0xca <__bad_interrupt>
      44:	0c 94 65 00 	jmp	0xca	; 0xca <__bad_interrupt>
      48:	0c 94 65 00 	jmp	0xca	; 0xca <__bad_interrupt>
      4c:	0c 94 65 00 	jmp	0xca	; 0xca <__bad_interrupt>
      50:	0c 94 65 00 	jmp	0xca	; 0xca <__bad_interrupt>
      54:	0c 94 65 00 	jmp	0xca	; 0xca <__bad_interrupt>
      58:	0c 94 65 00 	jmp	0xca	; 0xca <__bad_interrupt>
      5c:	0c 94 65 00 	jmp	0xca	; 0xca <__bad_interrupt>
      60:	0c 94 65 00 	jmp	0xca	; 0xca <__bad_interrupt>
      64:	0c 94 65 00 	jmp	0xca	; 0xca <__bad_interrupt>
      68:	0c 94 65 00 	jmp	0xca	; 0xca <__bad_interrupt>
      6c:	0c 94 65 00 	jmp	0xca	; 0xca <__bad_interrupt>
      70:	0c 94 65 00 	jmp	0xca	; 0xca <__bad_interrupt>
      74:	0c 94 65 00 	jmp	0xca	; 0xca <__bad_interrupt>
      78:	0c 94 5c 04 	jmp	0x8b8	; 0x8b8 <__vector_30>
      7c:	0c 94 65 00 	jmp	0xca	; 0xca <__bad_interrupt>
      80:	0c 94 18 04 	jmp	0x830	; 0x830 <__vector_32>
      84:	0c 94 65 00 	jmp	0xca	; 0xca <__bad_interrupt>
      88:	0c 94 65 00 	jmp	0xca	; 0xca <__bad_interrupt>

0000008c <__ctors_end>:
      8c:	11 24       	eor	r1, r1
      8e:	1f be       	out	0x3f, r1	; 63
      90:	cf ef       	ldi	r28, 0xFF	; 255
      92:	d0 e1       	ldi	r29, 0x10	; 16
      94:	de bf       	out	0x3e, r29	; 62
      96:	cd bf       	out	0x3d, r28	; 61

00000098 <__do_copy_data>:
      98:	11 e0       	ldi	r17, 0x01	; 1
      9a:	a0 e0       	ldi	r26, 0x00	; 0
      9c:	b1 e0       	ldi	r27, 0x01	; 1
      9e:	e4 ee       	ldi	r30, 0xE4	; 228
      a0:	f9 e1       	ldi	r31, 0x19	; 25
      a2:	00 e0       	ldi	r16, 0x00	; 0
      a4:	0b bf       	out	0x3b, r16	; 59
      a6:	02 c0       	rjmp	.+4      	; 0xac <__do_copy_data+0x14>
      a8:	07 90       	elpm	r0, Z+
      aa:	0d 92       	st	X+, r0
      ac:	aa 33       	cpi	r26, 0x3A	; 58
      ae:	b1 07       	cpc	r27, r17
      b0:	d9 f7       	brne	.-10     	; 0xa8 <__do_copy_data+0x10>

000000b2 <__do_clear_bss>:
      b2:	12 e0       	ldi	r17, 0x02	; 2
      b4:	aa e3       	ldi	r26, 0x3A	; 58
      b6:	b1 e0       	ldi	r27, 0x01	; 1
      b8:	01 c0       	rjmp	.+2      	; 0xbc <.do_clear_bss_start>

000000ba <.do_clear_bss_loop>:
      ba:	1d 92       	st	X+, r1

000000bc <.do_clear_bss_start>:
      bc:	a1 3d       	cpi	r26, 0xD1	; 209
      be:	b1 07       	cpc	r27, r17
      c0:	e1 f7       	brne	.-8      	; 0xba <.do_clear_bss_loop>
      c2:	0e 94 96 04 	call	0x92c	; 0x92c <main>
      c6:	0c 94 f0 0c 	jmp	0x19e0	; 0x19e0 <_exit>

000000ca <__bad_interrupt>:
      ca:	0c 94 00 00 	jmp	0	; 0x0 <__vectors>

000000ce <Task_01>:
unsigned char Task_01_Step		= 0;



void Task_01(void)
{
      ce:	cf 93       	push	r28
      d0:	df 93       	push	r29
      d2:	cd b7       	in	r28, 0x3d	; 61
      d4:	de b7       	in	r29, 0x3e	; 62
	switch(Task_01_Step )
      d6:	80 91 3a 01 	lds	r24, 0x013A
      da:	88 2f       	mov	r24, r24
      dc:	90 e0       	ldi	r25, 0x00	; 0
      de:	82 30       	cpi	r24, 0x02	; 2
      e0:	91 05       	cpc	r25, r1
      e2:	29 f1       	breq	.+74     	; 0x12e <Task_01+0x60>
      e4:	83 30       	cpi	r24, 0x03	; 3
      e6:	91 05       	cpc	r25, r1
      e8:	34 f4       	brge	.+12     	; 0xf6 <Task_01+0x28>
      ea:	00 97       	sbiw	r24, 0x00	; 0
      ec:	69 f1       	breq	.+90     	; 0x148 <Task_01+0x7a>
      ee:	81 30       	cpi	r24, 0x01	; 1
      f0:	91 05       	cpc	r25, r1
      f2:	59 f0       	breq	.+22     	; 0x10a <Task_01+0x3c>
      f4:	2c c0       	rjmp	.+88     	; 0x14e <Task_01+0x80>
      f6:	84 30       	cpi	r24, 0x04	; 4
      f8:	91 05       	cpc	r25, r1
      fa:	f9 f0       	breq	.+62     	; 0x13a <Task_01+0x6c>
      fc:	84 30       	cpi	r24, 0x04	; 4
      fe:	91 05       	cpc	r25, r1
     100:	cc f0       	brlt	.+50     	; 0x134 <Task_01+0x66>
     102:	85 30       	cpi	r24, 0x05	; 5
     104:	91 05       	cpc	r25, r1
     106:	e1 f0       	breq	.+56     	; 0x140 <Task_01+0x72>
     108:	22 c0       	rjmp	.+68     	; 0x14e <Task_01+0x80>

		//################################################################################

		case 1 :
		{
			if (USART2_Busy == 0) {
     10a:	80 91 47 01 	lds	r24, 0x0147
     10e:	88 23       	and	r24, r24
     110:	e9 f4       	brne	.+58     	; 0x14c <Task_01+0x7e>
				sprintf(USART2_buffer,"xxxxxxxxxxxxxxxxxxxxx\n\r");
     112:	88 e1       	ldi	r24, 0x18	; 24
     114:	e0 e0       	ldi	r30, 0x00	; 0
     116:	f1 e0       	ldi	r31, 0x01	; 1
     118:	a7 ed       	ldi	r26, 0xD7	; 215
     11a:	b1 e0       	ldi	r27, 0x01	; 1
     11c:	01 90       	ld	r0, Z+
     11e:	0d 92       	st	X+, r0
     120:	8a 95       	dec	r24
     122:	e1 f7       	brne	.-8      	; 0x11c <Task_01+0x4e>
				USART2_Transmit();
     124:	0e 94 f3 03 	call	0x7e6	; 0x7e6 <USART2_Transmit>
				Task_01__Task_Stop;
     128:	10 92 3a 01 	sts	0x013A, r1
			}

			break;
     12c:	0f c0       	rjmp	.+30     	; 0x14c <Task_01+0x7e>
		}
		case 2 :
		{


			Task_01__Task_Stop;
     12e:	10 92 3a 01 	sts	0x013A, r1
			break;
     132:	0d c0       	rjmp	.+26     	; 0x14e <Task_01+0x80>
		}
		case 3 :
		{


			Task_01__Task_Stop;
     134:	10 92 3a 01 	sts	0x013A, r1
			break;
     138:	0a c0       	rjmp	.+20     	; 0x14e <Task_01+0x80>

		case 4 :
		{


			Task_01__Task_Stop;
     13a:	10 92 3a 01 	sts	0x013A, r1
			break;
     13e:	07 c0       	rjmp	.+14     	; 0x14e <Task_01+0x80>
		}

		case 5 :
		{

			Task_01__Task_Stop;
     140:	10 92 3a 01 	sts	0x013A, r1
			break;
     144:	00 00       	nop
     146:	03 c0       	rjmp	.+6      	; 0x14e <Task_01+0x80>
{
	switch(Task_01_Step )
	{
		case 0 :
		{
			break;
     148:	00 00       	nop
     14a:	01 c0       	rjmp	.+2      	; 0x14e <Task_01+0x80>
				sprintf(USART2_buffer,"xxxxxxxxxxxxxxxxxxxxx\n\r");
				USART2_Transmit();
				Task_01__Task_Stop;
			}

			break;
     14c:	00 00       	nop




	}
}
     14e:	df 91       	pop	r29
     150:	cf 91       	pop	r28
     152:	08 95       	ret

00000154 <Task_02>:
		} all;
//#
//#################################################################################

void Task_02(void)
{
     154:	cf 93       	push	r28
     156:	df 93       	push	r29
     158:	cd b7       	in	r28, 0x3d	; 61
     15a:	de b7       	in	r29, 0x3e	; 62
	switch(Task_02_Step )
     15c:	80 91 3b 01 	lds	r24, 0x013B
     160:	88 2f       	mov	r24, r24
     162:	90 e0       	ldi	r25, 0x00	; 0
     164:	82 30       	cpi	r24, 0x02	; 2
     166:	91 05       	cpc	r25, r1
     168:	f1 f0       	breq	.+60     	; 0x1a6 <Task_02+0x52>
     16a:	83 30       	cpi	r24, 0x03	; 3
     16c:	91 05       	cpc	r25, r1
     16e:	3c f4       	brge	.+14     	; 0x17e <Task_02+0x2a>
     170:	00 97       	sbiw	r24, 0x00	; 0
     172:	09 f4       	brne	.+2      	; 0x176 <Task_02+0x22>
     174:	52 c0       	rjmp	.+164    	; 0x21a <Task_02+0xc6>
     176:	81 30       	cpi	r24, 0x01	; 1
     178:	91 05       	cpc	r25, r1
     17a:	69 f0       	breq	.+26     	; 0x196 <Task_02+0x42>
     17c:	51 c0       	rjmp	.+162    	; 0x220 <Task_02+0xcc>
     17e:	84 30       	cpi	r24, 0x04	; 4
     180:	91 05       	cpc	r25, r1
     182:	09 f4       	brne	.+2      	; 0x186 <Task_02+0x32>
     184:	43 c0       	rjmp	.+134    	; 0x20c <Task_02+0xb8>
     186:	84 30       	cpi	r24, 0x04	; 4
     188:	91 05       	cpc	r25, r1
     18a:	ec f1       	brlt	.+122    	; 0x206 <Task_02+0xb2>
     18c:	85 30       	cpi	r24, 0x05	; 5
     18e:	91 05       	cpc	r25, r1
     190:	09 f4       	brne	.+2      	; 0x194 <Task_02+0x40>
     192:	3f c0       	rjmp	.+126    	; 0x212 <Task_02+0xbe>
     194:	45 c0       	rjmp	.+138    	; 0x220 <Task_02+0xcc>
		case 1 :
		{
			/////////////////////////////

			/////////////////////////////
			gamura();
     196:	0e 94 2c 01 	call	0x258	; 0x258 <gamura>

			Task_02__GoTo_Next_Step;
     19a:	80 91 3b 01 	lds	r24, 0x013B
     19e:	8f 5f       	subi	r24, 0xFF	; 255
     1a0:	80 93 3b 01 	sts	0x013B, r24

			break;
     1a4:	3d c0       	rjmp	.+122    	; 0x220 <Task_02+0xcc>
		}
		case 2 :
		{


			if (USART2_Busy == 0) {
     1a6:	80 91 47 01 	lds	r24, 0x0147
     1aa:	88 23       	and	r24, r24
     1ac:	c1 f5       	brne	.+112    	; 0x21e <Task_02+0xca>
				sprintf(USART2_buffer,">  %lu\n\r", MyVel._long);
     1ae:	80 91 50 01 	lds	r24, 0x0150
     1b2:	90 91 51 01 	lds	r25, 0x0151
     1b6:	a0 91 52 01 	lds	r26, 0x0152
     1ba:	b0 91 53 01 	lds	r27, 0x0153
     1be:	2b 2f       	mov	r18, r27
     1c0:	2f 93       	push	r18
     1c2:	2a 2f       	mov	r18, r26
     1c4:	2f 93       	push	r18
     1c6:	29 2f       	mov	r18, r25
     1c8:	2f 93       	push	r18
     1ca:	8f 93       	push	r24
     1cc:	88 e1       	ldi	r24, 0x18	; 24
     1ce:	91 e0       	ldi	r25, 0x01	; 1
     1d0:	89 2f       	mov	r24, r25
     1d2:	8f 93       	push	r24
     1d4:	88 e1       	ldi	r24, 0x18	; 24
     1d6:	91 e0       	ldi	r25, 0x01	; 1
     1d8:	8f 93       	push	r24
     1da:	87 ed       	ldi	r24, 0xD7	; 215
     1dc:	91 e0       	ldi	r25, 0x01	; 1
     1de:	89 2f       	mov	r24, r25
     1e0:	8f 93       	push	r24
     1e2:	87 ed       	ldi	r24, 0xD7	; 215
     1e4:	91 e0       	ldi	r25, 0x01	; 1
     1e6:	8f 93       	push	r24
     1e8:	0e 94 19 0a 	call	0x1432	; 0x1432 <sprintf>
     1ec:	8d b7       	in	r24, 0x3d	; 61
     1ee:	9e b7       	in	r25, 0x3e	; 62
     1f0:	08 96       	adiw	r24, 0x08	; 8
     1f2:	0f b6       	in	r0, 0x3f	; 63
     1f4:	f8 94       	cli
     1f6:	de bf       	out	0x3e, r29	; 62
     1f8:	0f be       	out	0x3f, r0	; 63
     1fa:	cd bf       	out	0x3d, r28	; 61
				//mtvleli = MyVel._long;
				USART2_Transmit();
     1fc:	0e 94 f3 03 	call	0x7e6	; 0x7e6 <USART2_Transmit>
				Task_02__Task_Stop;
     200:	10 92 3b 01 	sts	0x013B, r1
				//Task_02__Task_Start;
			}



			break;
     204:	0c c0       	rjmp	.+24     	; 0x21e <Task_02+0xca>
		}
		case 3 :
		{


			Task_02__Task_Stop;
     206:	10 92 3b 01 	sts	0x013B, r1
			break;
     20a:	0a c0       	rjmp	.+20     	; 0x220 <Task_02+0xcc>

		case 4 :
		{


			Task_02__Task_Stop;
     20c:	10 92 3b 01 	sts	0x013B, r1
			break;
     210:	07 c0       	rjmp	.+14     	; 0x220 <Task_02+0xcc>
		}

		case 5 :
		{

			Task_02__Task_Stop;
     212:	10 92 3b 01 	sts	0x013B, r1
			break;
     216:	00 00       	nop
     218:	03 c0       	rjmp	.+6      	; 0x220 <Task_02+0xcc>
{
	switch(Task_02_Step )
	{
		case 0 :
		{
			break;
     21a:	00 00       	nop
     21c:	01 c0       	rjmp	.+2      	; 0x220 <Task_02+0xcc>
				//Task_02__Task_Start;
			}



			break;
     21e:	00 00       	nop




	}
}
     220:	df 91       	pop	r29
     222:	cf 91       	pop	r28
     224:	08 95       	ret

00000226 <gamura_init>:

//#################################################################
void gamura_init(void) {
     226:	cf 93       	push	r28
     228:	df 93       	push	r29
     22a:	cd b7       	in	r28, 0x3d	; 61
     22c:	de b7       	in	r29, 0x3e	; 62

	DD_HCRS04_Trig_Out;
     22e:	81 e3       	ldi	r24, 0x31	; 49
     230:	90 e0       	ldi	r25, 0x00	; 0
     232:	21 e3       	ldi	r18, 0x31	; 49
     234:	30 e0       	ldi	r19, 0x00	; 0
     236:	f9 01       	movw	r30, r18
     238:	20 81       	ld	r18, Z
     23a:	20 61       	ori	r18, 0x10	; 16
     23c:	fc 01       	movw	r30, r24
     23e:	20 83       	st	Z, r18
	DD_HCRS04_Echo_In;
     240:	81 e3       	ldi	r24, 0x31	; 49
     242:	90 e0       	ldi	r25, 0x00	; 0
     244:	21 e3       	ldi	r18, 0x31	; 49
     246:	30 e0       	ldi	r19, 0x00	; 0
     248:	f9 01       	movw	r30, r18
     24a:	20 81       	ld	r18, Z
     24c:	2f 7d       	andi	r18, 0xDF	; 223
     24e:	fc 01       	movw	r30, r24
     250:	20 83       	st	Z, r18

}
     252:	df 91       	pop	r29
     254:	cf 91       	pop	r28
     256:	08 95       	ret

00000258 <gamura>:
void gamura(void) {
     258:	0f 93       	push	r16
     25a:	1f 93       	push	r17
     25c:	cf 93       	push	r28
     25e:	df 93       	push	r29
     260:	cd b7       	in	r28, 0x3d	; 61
     262:	de b7       	in	r29, 0x3e	; 62
     264:	2f 97       	sbiw	r28, 0x0f	; 15
     266:	0f b6       	in	r0, 0x3f	; 63
     268:	f8 94       	cli
     26a:	de bf       	out	0x3e, r29	; 62
     26c:	0f be       	out	0x3f, r0	; 63
     26e:	cd bf       	out	0x3d, r28	; 61

		char x1 = 0;
     270:	19 82       	std	Y+1, r1	; 0x01
		//########################################
		HCRS04_Trig_1;
     272:	82 e3       	ldi	r24, 0x32	; 50
     274:	90 e0       	ldi	r25, 0x00	; 0
     276:	22 e3       	ldi	r18, 0x32	; 50
     278:	30 e0       	ldi	r19, 0x00	; 0
     27a:	f9 01       	movw	r30, r18
     27c:	20 81       	ld	r18, Z
     27e:	20 61       	ori	r18, 0x10	; 16
     280:	fc 01       	movw	r30, r24
     282:	20 83       	st	Z, r18
     284:	80 e0       	ldi	r24, 0x00	; 0
     286:	90 e0       	ldi	r25, 0x00	; 0
     288:	a8 e4       	ldi	r26, 0x48	; 72
     28a:	b3 e4       	ldi	r27, 0x43	; 67
     28c:	8a 83       	std	Y+2, r24	; 0x02
     28e:	9b 83       	std	Y+3, r25	; 0x03
     290:	ac 83       	std	Y+4, r26	; 0x04
     292:	bd 83       	std	Y+5, r27	; 0x05
	#endif

	__builtin_avr_delay_cycles(__ticks_dc);

#else
	__tmp = ((F_CPU) / 4e3) * __ms;
     294:	26 e6       	ldi	r18, 0x66	; 102
     296:	36 e6       	ldi	r19, 0x66	; 102
     298:	46 ee       	ldi	r20, 0xE6	; 230
     29a:	54 e4       	ldi	r21, 0x44	; 68
     29c:	6a 81       	ldd	r22, Y+2	; 0x02
     29e:	7b 81       	ldd	r23, Y+3	; 0x03
     2a0:	8c 81       	ldd	r24, Y+4	; 0x04
     2a2:	9d 81       	ldd	r25, Y+5	; 0x05
     2a4:	0e 94 90 06 	call	0xd20	; 0xd20 <__mulsf3>
     2a8:	dc 01       	movw	r26, r24
     2aa:	cb 01       	movw	r24, r22
     2ac:	8e 83       	std	Y+6, r24	; 0x06
     2ae:	9f 83       	std	Y+7, r25	; 0x07
     2b0:	a8 87       	std	Y+8, r26	; 0x08
     2b2:	b9 87       	std	Y+9, r27	; 0x09
	if (__tmp < 1.0)
     2b4:	20 e0       	ldi	r18, 0x00	; 0
     2b6:	30 e0       	ldi	r19, 0x00	; 0
     2b8:	40 e8       	ldi	r20, 0x80	; 128
     2ba:	5f e3       	ldi	r21, 0x3F	; 63
     2bc:	6e 81       	ldd	r22, Y+6	; 0x06
     2be:	7f 81       	ldd	r23, Y+7	; 0x07
     2c0:	88 85       	ldd	r24, Y+8	; 0x08
     2c2:	99 85       	ldd	r25, Y+9	; 0x09
     2c4:	0e 94 d3 07 	call	0xfa6	; 0xfa6 <__ltsf2>
     2c8:	88 23       	and	r24, r24
     2ca:	2c f4       	brge	.+10     	; 0x2d6 <gamura+0x7e>
		__ticks = 1;
     2cc:	81 e0       	ldi	r24, 0x01	; 1
     2ce:	90 e0       	ldi	r25, 0x00	; 0
     2d0:	9b 87       	std	Y+11, r25	; 0x0b
     2d2:	8a 87       	std	Y+10, r24	; 0x0a
     2d4:	42 c0       	rjmp	.+132    	; 0x35a <gamura+0x102>
	else if (__tmp > 65535)
     2d6:	20 e0       	ldi	r18, 0x00	; 0
     2d8:	3f ef       	ldi	r19, 0xFF	; 255
     2da:	4f e7       	ldi	r20, 0x7F	; 127
     2dc:	57 e4       	ldi	r21, 0x47	; 71
     2de:	6e 81       	ldd	r22, Y+6	; 0x06
     2e0:	7f 81       	ldd	r23, Y+7	; 0x07
     2e2:	88 85       	ldd	r24, Y+8	; 0x08
     2e4:	99 85       	ldd	r25, Y+9	; 0x09
     2e6:	0e 94 75 07 	call	0xeea	; 0xeea <__gtsf2>
     2ea:	18 16       	cp	r1, r24
     2ec:	64 f5       	brge	.+88     	; 0x346 <gamura+0xee>
	{
		//	__ticks = requested delay in 1/10 ms
		__ticks = (uint16_t) (__ms * 10.0);
     2ee:	20 e0       	ldi	r18, 0x00	; 0
     2f0:	30 e0       	ldi	r19, 0x00	; 0
     2f2:	40 e2       	ldi	r20, 0x20	; 32
     2f4:	51 e4       	ldi	r21, 0x41	; 65
     2f6:	6a 81       	ldd	r22, Y+2	; 0x02
     2f8:	7b 81       	ldd	r23, Y+3	; 0x03
     2fa:	8c 81       	ldd	r24, Y+4	; 0x04
     2fc:	9d 81       	ldd	r25, Y+5	; 0x05
     2fe:	0e 94 90 06 	call	0xd20	; 0xd20 <__mulsf3>
     302:	dc 01       	movw	r26, r24
     304:	cb 01       	movw	r24, r22
     306:	bc 01       	movw	r22, r24
     308:	cd 01       	movw	r24, r26
     30a:	0e 94 b5 04 	call	0x96a	; 0x96a <__fixunssfsi>
     30e:	dc 01       	movw	r26, r24
     310:	cb 01       	movw	r24, r22
     312:	9b 87       	std	Y+11, r25	; 0x0b
     314:	8a 87       	std	Y+10, r24	; 0x0a
     316:	12 c0       	rjmp	.+36     	; 0x33c <gamura+0xe4>
     318:	88 eb       	ldi	r24, 0xB8	; 184
     31a:	90 e0       	ldi	r25, 0x00	; 0
     31c:	9d 87       	std	Y+13, r25	; 0x0d
     31e:	8c 87       	std	Y+12, r24	; 0x0c
    milliseconds can be achieved.
 */
void
_delay_loop_2(uint16_t __count)
{
	__asm__ volatile (
     320:	8c 85       	ldd	r24, Y+12	; 0x0c
     322:	9d 85       	ldd	r25, Y+13	; 0x0d
     324:	8c 01       	movw	r16, r24
     326:	c8 01       	movw	r24, r16
     328:	01 97       	sbiw	r24, 0x01	; 1
     32a:	f1 f7       	brne	.-4      	; 0x328 <gamura+0xd0>
     32c:	8c 01       	movw	r16, r24
     32e:	1d 87       	std	Y+13, r17	; 0x0d
     330:	0c 87       	std	Y+12, r16	; 0x0c
		while(__ticks)
		{
			// wait 1/10 ms
			_delay_loop_2(((F_CPU) / 4e3) / 10);
			__ticks --;
     332:	8a 85       	ldd	r24, Y+10	; 0x0a
     334:	9b 85       	ldd	r25, Y+11	; 0x0b
     336:	01 97       	sbiw	r24, 0x01	; 1
     338:	9b 87       	std	Y+11, r25	; 0x0b
     33a:	8a 87       	std	Y+10, r24	; 0x0a
		__ticks = 1;
	else if (__tmp > 65535)
	{
		//	__ticks = requested delay in 1/10 ms
		__ticks = (uint16_t) (__ms * 10.0);
		while(__ticks)
     33c:	8a 85       	ldd	r24, Y+10	; 0x0a
     33e:	9b 85       	ldd	r25, Y+11	; 0x0b
     340:	00 97       	sbiw	r24, 0x00	; 0
     342:	51 f7       	brne	.-44     	; 0x318 <gamura+0xc0>
     344:	17 c0       	rjmp	.+46     	; 0x374 <gamura+0x11c>
			__ticks --;
		}
		return;
	}
	else
		__ticks = (uint16_t)__tmp;
     346:	6e 81       	ldd	r22, Y+6	; 0x06
     348:	7f 81       	ldd	r23, Y+7	; 0x07
     34a:	88 85       	ldd	r24, Y+8	; 0x08
     34c:	99 85       	ldd	r25, Y+9	; 0x09
     34e:	0e 94 b5 04 	call	0x96a	; 0x96a <__fixunssfsi>
     352:	dc 01       	movw	r26, r24
     354:	cb 01       	movw	r24, r22
     356:	9b 87       	std	Y+11, r25	; 0x0b
     358:	8a 87       	std	Y+10, r24	; 0x0a
     35a:	8a 85       	ldd	r24, Y+10	; 0x0a
     35c:	9b 85       	ldd	r25, Y+11	; 0x0b
     35e:	9f 87       	std	Y+15, r25	; 0x0f
     360:	8e 87       	std	Y+14, r24	; 0x0e
     362:	8e 85       	ldd	r24, Y+14	; 0x0e
     364:	9f 85       	ldd	r25, Y+15	; 0x0f
     366:	8c 01       	movw	r16, r24
     368:	f8 01       	movw	r30, r16
     36a:	31 97       	sbiw	r30, 0x01	; 1
     36c:	f1 f7       	brne	.-4      	; 0x36a <gamura+0x112>
     36e:	8f 01       	movw	r16, r30
     370:	1f 87       	std	Y+15, r17	; 0x0f
     372:	0e 87       	std	Y+14, r16	; 0x0e
		_delay_ms(200);
		HCRS04_Trig_0;
     374:	82 e3       	ldi	r24, 0x32	; 50
     376:	90 e0       	ldi	r25, 0x00	; 0
     378:	22 e3       	ldi	r18, 0x32	; 50
     37a:	30 e0       	ldi	r19, 0x00	; 0
     37c:	f9 01       	movw	r30, r18
     37e:	20 81       	ld	r18, Z
     380:	2f 7e       	andi	r18, 0xEF	; 239
     382:	fc 01       	movw	r30, r24
     384:	20 83       	st	Z, r18
		//########################################

		x1 = PIND & 0b00100000;
     386:	80 e3       	ldi	r24, 0x30	; 48
     388:	90 e0       	ldi	r25, 0x00	; 0
     38a:	fc 01       	movw	r30, r24
     38c:	80 81       	ld	r24, Z
     38e:	80 72       	andi	r24, 0x20	; 32
     390:	89 83       	std	Y+1, r24	; 0x01
     392:	01 c0       	rjmp	.+2      	; 0x396 <gamura+0x13e>

			// velodebi ertians
			while(1){
				x1 = PIND & 0b00100000;
				if (x1!=0) break;
			}
     394:	00 00       	nop



			// velodebi ertians
			while(1){
				x1 = PIND & 0b00100000;
     396:	80 e3       	ldi	r24, 0x30	; 48
     398:	90 e0       	ldi	r25, 0x00	; 0
     39a:	fc 01       	movw	r30, r24
     39c:	80 81       	ld	r24, Z
     39e:	80 72       	andi	r24, 0x20	; 32
     3a0:	89 83       	std	Y+1, r24	; 0x01
				if (x1!=0) break;
     3a2:	89 81       	ldd	r24, Y+1	; 0x01
     3a4:	88 23       	and	r24, r24
     3a6:	b1 f3       	breq	.-20     	; 0x394 <gamura+0x13c>
     3a8:	00 00       	nop
			}
			//########################################

			MyVel._long =  0;
     3aa:	10 92 50 01 	sts	0x0150, r1
     3ae:	10 92 51 01 	sts	0x0151, r1
     3b2:	10 92 52 01 	sts	0x0152, r1
     3b6:	10 92 53 01 	sts	0x0153, r1
     3ba:	01 c0       	rjmp	.+2      	; 0x3be <gamura+0x166>
			// ertianis xangdzlivobis gansazgvra
			while(1){
				MyVel._long++;
				x1 = PIND & 0b00100000;
				if (x1==0) break;
			}
     3bc:	00 00       	nop

			MyVel._long =  0;

			// ertianis xangdzlivobis gansazgvra
			while(1){
				MyVel._long++;
     3be:	80 91 50 01 	lds	r24, 0x0150
     3c2:	90 91 51 01 	lds	r25, 0x0151
     3c6:	a0 91 52 01 	lds	r26, 0x0152
     3ca:	b0 91 53 01 	lds	r27, 0x0153
     3ce:	01 96       	adiw	r24, 0x01	; 1
     3d0:	a1 1d       	adc	r26, r1
     3d2:	b1 1d       	adc	r27, r1
     3d4:	80 93 50 01 	sts	0x0150, r24
     3d8:	90 93 51 01 	sts	0x0151, r25
     3dc:	a0 93 52 01 	sts	0x0152, r26
     3e0:	b0 93 53 01 	sts	0x0153, r27
				x1 = PIND & 0b00100000;
     3e4:	80 e3       	ldi	r24, 0x30	; 48
     3e6:	90 e0       	ldi	r25, 0x00	; 0
     3e8:	fc 01       	movw	r30, r24
     3ea:	80 81       	ld	r24, Z
     3ec:	80 72       	andi	r24, 0x20	; 32
     3ee:	89 83       	std	Y+1, r24	; 0x01
				if (x1==0) break;
     3f0:	89 81       	ldd	r24, Y+1	; 0x01
     3f2:	88 23       	and	r24, r24
     3f4:	19 f7       	brne	.-58     	; 0x3bc <gamura+0x164>
     3f6:	00 00       	nop
			//########################################


			//########################################

}
     3f8:	2f 96       	adiw	r28, 0x0f	; 15
     3fa:	0f b6       	in	r0, 0x3f	; 63
     3fc:	f8 94       	cli
     3fe:	de bf       	out	0x3e, r29	; 62
     400:	0f be       	out	0x3f, r0	; 63
     402:	cd bf       	out	0x3d, r28	; 61
     404:	df 91       	pop	r29
     406:	cf 91       	pop	r28
     408:	1f 91       	pop	r17
     40a:	0f 91       	pop	r16
     40c:	08 95       	ret

0000040e <Task_03>:
unsigned char Task_03_Step		= 0;

char SAVE;

void Task_03(void)
{
     40e:	cf 93       	push	r28
     410:	df 93       	push	r29
     412:	cd b7       	in	r28, 0x3d	; 61
     414:	de b7       	in	r29, 0x3e	; 62
	switch(Task_03_Step )
     416:	80 91 3c 01 	lds	r24, 0x013C
     41a:	88 2f       	mov	r24, r24
     41c:	90 e0       	ldi	r25, 0x00	; 0
     41e:	83 30       	cpi	r24, 0x03	; 3
     420:	91 05       	cpc	r25, r1
     422:	09 f4       	brne	.+2      	; 0x426 <Task_03+0x18>
     424:	47 c0       	rjmp	.+142    	; 0x4b4 <Task_03+0xa6>
     426:	84 30       	cpi	r24, 0x04	; 4
     428:	91 05       	cpc	r25, r1
     42a:	4c f4       	brge	.+18     	; 0x43e <Task_03+0x30>
     42c:	81 30       	cpi	r24, 0x01	; 1
     42e:	91 05       	cpc	r25, r1
     430:	e9 f0       	breq	.+58     	; 0x46c <Task_03+0x5e>
     432:	82 30       	cpi	r24, 0x02	; 2
     434:	91 05       	cpc	r25, r1
     436:	5c f5       	brge	.+86     	; 0x48e <Task_03+0x80>
     438:	00 97       	sbiw	r24, 0x00	; 0
     43a:	69 f0       	breq	.+26     	; 0x456 <Task_03+0x48>
     43c:	55 c0       	rjmp	.+170    	; 0x4e8 <Task_03+0xda>
     43e:	85 30       	cpi	r24, 0x05	; 5
     440:	91 05       	cpc	r25, r1
     442:	09 f4       	brne	.+2      	; 0x446 <Task_03+0x38>
     444:	47 c0       	rjmp	.+142    	; 0x4d4 <Task_03+0xc6>
     446:	85 30       	cpi	r24, 0x05	; 5
     448:	91 05       	cpc	r25, r1
     44a:	d4 f1       	brlt	.+116    	; 0x4c0 <Task_03+0xb2>
     44c:	86 30       	cpi	r24, 0x06	; 6
     44e:	91 05       	cpc	r25, r1
     450:	09 f4       	brne	.+2      	; 0x454 <Task_03+0x46>
     452:	43 c0       	rjmp	.+134    	; 0x4da <Task_03+0xcc>
     454:	49 c0       	rjmp	.+146    	; 0x4e8 <Task_03+0xda>
	{
		case 0 :
		{
				if (USART2_Vel == 'x'){
     456:	80 91 d6 01 	lds	r24, 0x01D6
     45a:	88 37       	cpi	r24, 0x78	; 120
     45c:	09 f0       	breq	.+2      	; 0x460 <Task_03+0x52>
     45e:	41 c0       	rjmp	.+130    	; 0x4e2 <Task_03+0xd4>
					Task_03__GoTo_Next_Step;
     460:	80 91 3c 01 	lds	r24, 0x013C
     464:	8f 5f       	subi	r24, 0xFF	; 255
     466:	80 93 3c 01 	sts	0x013C, r24
				}

			break;
     46a:	3b c0       	rjmp	.+118    	; 0x4e2 <Task_03+0xd4>

		//################################################################################

		case 1 :
		{
				if (USART2_Vel == 'y'){
     46c:	80 91 d6 01 	lds	r24, 0x01D6
     470:	89 37       	cpi	r24, 0x79	; 121
     472:	31 f4       	brne	.+12     	; 0x480 <Task_03+0x72>
					Task_03__GoTo_Next_Step;
     474:	80 91 3c 01 	lds	r24, 0x013C
     478:	8f 5f       	subi	r24, 0xFF	; 255
     47a:	80 93 3c 01 	sts	0x013C, r24
					if(USART2_Vel != 'x'){
						Task_03__Task_Stop;
					}

				}
			break;
     47e:	33 c0       	rjmp	.+102    	; 0x4e6 <Task_03+0xd8>
		case 1 :
		{
				if (USART2_Vel == 'y'){
					Task_03__GoTo_Next_Step;
				}else{
					if(USART2_Vel != 'x'){
     480:	80 91 d6 01 	lds	r24, 0x01D6
     484:	88 37       	cpi	r24, 0x78	; 120
     486:	79 f1       	breq	.+94     	; 0x4e6 <Task_03+0xd8>
						Task_03__Task_Stop;
     488:	10 92 3c 01 	sts	0x013C, r1
					}

				}
			break;
     48c:	2c c0       	rjmp	.+88     	; 0x4e6 <Task_03+0xd8>
		}
		case 2 :
		{
				if (USART2_Vel == '1') {
     48e:	80 91 d6 01 	lds	r24, 0x01D6
     492:	81 33       	cpi	r24, 0x31	; 49
     494:	21 f4       	brne	.+8      	; 0x49e <Task_03+0x90>
					Task_03_Step = 3;
     496:	83 e0       	ldi	r24, 0x03	; 3
     498:	80 93 3c 01 	sts	0x013C, r24
					Task_03_Step = 4;
				} else {
					Task_03__Task_Stop;
				}

			break;
     49c:	25 c0       	rjmp	.+74     	; 0x4e8 <Task_03+0xda>
		}
		case 2 :
		{
				if (USART2_Vel == '1') {
					Task_03_Step = 3;
				} else if (USART2_Vel == '2') {
     49e:	80 91 d6 01 	lds	r24, 0x01D6
     4a2:	82 33       	cpi	r24, 0x32	; 50
     4a4:	21 f4       	brne	.+8      	; 0x4ae <Task_03+0xa0>
					Task_03_Step = 4;
     4a6:	84 e0       	ldi	r24, 0x04	; 4
     4a8:	80 93 3c 01 	sts	0x013C, r24
				} else {
					Task_03__Task_Stop;
				}

			break;
     4ac:	1d c0       	rjmp	.+58     	; 0x4e8 <Task_03+0xda>
				if (USART2_Vel == '1') {
					Task_03_Step = 3;
				} else if (USART2_Vel == '2') {
					Task_03_Step = 4;
				} else {
					Task_03__Task_Stop;
     4ae:	10 92 3c 01 	sts	0x013C, r1
				}

			break;
     4b2:	1a c0       	rjmp	.+52     	; 0x4e8 <Task_03+0xda>
		}
		case 3 :
		{

			Task_02__Task_Start;
     4b4:	81 e0       	ldi	r24, 0x01	; 1
     4b6:	80 93 3b 01 	sts	0x013B, r24
			Task_03__Task_Stop;
     4ba:	10 92 3c 01 	sts	0x013C, r1
			break;
     4be:	14 c0       	rjmp	.+40     	; 0x4e8 <Task_03+0xda>

		case 4 :
		{

			//UDR0 = USART2_Vel;
			SAVE = USART2_Vel;
     4c0:	80 91 d6 01 	lds	r24, 0x01D6
     4c4:	80 93 54 01 	sts	0x0154, r24
			Task_04__Task_Start;
     4c8:	81 e0       	ldi	r24, 0x01	; 1
     4ca:	80 93 3d 01 	sts	0x013D, r24
			Task_03__Task_Stop;
     4ce:	10 92 3c 01 	sts	0x013C, r1

			//USART2_Waiting_For_Free ;
			//sprintf(USART2_buffer,"yyyyyyyyyyy \n\r");
			//USART2_Transmit();

			break;
     4d2:	0a c0       	rjmp	.+20     	; 0x4e8 <Task_03+0xda>
		}

		case 5 :
		{
			Task_03__Task_Stop;
     4d4:	10 92 3c 01 	sts	0x013C, r1
			break;
     4d8:	07 c0       	rjmp	.+14     	; 0x4e8 <Task_03+0xda>


		case 6 :
		{

			Task_03__Task_Stop;
     4da:	10 92 3c 01 	sts	0x013C, r1
			break;
     4de:	00 00       	nop
     4e0:	03 c0       	rjmp	.+6      	; 0x4e8 <Task_03+0xda>
		{
				if (USART2_Vel == 'x'){
					Task_03__GoTo_Next_Step;
				}

			break;
     4e2:	00 00       	nop
     4e4:	01 c0       	rjmp	.+2      	; 0x4e8 <Task_03+0xda>
					if(USART2_Vel != 'x'){
						Task_03__Task_Stop;
					}

				}
			break;
     4e6:	00 00       	nop




	}
}
     4e8:	df 91       	pop	r29
     4ea:	cf 91       	pop	r28
     4ec:	08 95       	ret

000004ee <Task_04>:

unsigned short a=0;


void Task_04(void)
{
     4ee:	cf 93       	push	r28
     4f0:	df 93       	push	r29
     4f2:	cd b7       	in	r28, 0x3d	; 61
     4f4:	de b7       	in	r29, 0x3e	; 62



	switch(Task_04_Step )
     4f6:	80 91 3d 01 	lds	r24, 0x013D
     4fa:	88 2f       	mov	r24, r24
     4fc:	90 e0       	ldi	r25, 0x00	; 0
     4fe:	81 30       	cpi	r24, 0x01	; 1
     500:	91 05       	cpc	r25, r1
     502:	59 f0       	breq	.+22     	; 0x51a <Task_04+0x2c>
     504:	82 30       	cpi	r24, 0x02	; 2
     506:	91 05       	cpc	r25, r1
     508:	0c f4       	brge	.+2      	; 0x50c <Task_04+0x1e>
     50a:	51 c0       	rjmp	.+162    	; 0x5ae <Task_04+0xc0>
     50c:	82 30       	cpi	r24, 0x02	; 2
     50e:	91 05       	cpc	r25, r1
     510:	91 f0       	breq	.+36     	; 0x536 <Task_04+0x48>
     512:	83 30       	cpi	r24, 0x03	; 3
     514:	91 05       	cpc	r25, r1
     516:	81 f1       	breq	.+96     	; 0x578 <Task_04+0x8a>
     518:	4f c0       	rjmp	.+158    	; 0x5b8 <Task_04+0xca>
			//################################################################################

			case 1 :
			{

				a=0;
     51a:	10 92 3f 01 	sts	0x013F, r1
     51e:	10 92 3e 01 	sts	0x013E, r1
				Task_04__GoTo_Next_Step	;
     522:	80 91 3d 01 	lds	r24, 0x013D
     526:	8f 5f       	subi	r24, 0xFF	; 255
     528:	80 93 3d 01 	sts	0x013D, r24
				UDR0 = 0;
     52c:	8c e2       	ldi	r24, 0x2C	; 44
     52e:	90 e0       	ldi	r25, 0x00	; 0
     530:	fc 01       	movw	r30, r24
     532:	10 82       	st	Z, r1


				//Task_04__Task_Stop;

				break;
     534:	41 c0       	rjmp	.+130    	; 0x5b8 <Task_04+0xca>
			}
			case 2 :
			{

				a++;
     536:	80 91 3e 01 	lds	r24, 0x013E
     53a:	90 91 3f 01 	lds	r25, 0x013F
     53e:	01 96       	adiw	r24, 0x01	; 1
     540:	90 93 3f 01 	sts	0x013F, r25
     544:	80 93 3e 01 	sts	0x013E, r24

				if (a == 500)
     548:	80 91 3e 01 	lds	r24, 0x013E
     54c:	90 91 3f 01 	lds	r25, 0x013F
     550:	84 3f       	cpi	r24, 0xF4	; 244
     552:	f1 e0       	ldi	r31, 0x01	; 1
     554:	9f 07       	cpc	r25, r31
     556:	69 f5       	brne	.+90     	; 0x5b2 <Task_04+0xc4>
				{
					UDR0 = SAVE;
     558:	8c e2       	ldi	r24, 0x2C	; 44
     55a:	90 e0       	ldi	r25, 0x00	; 0
     55c:	20 91 54 01 	lds	r18, 0x0154
     560:	fc 01       	movw	r30, r24
     562:	20 83       	st	Z, r18
					a=0;
     564:	10 92 3f 01 	sts	0x013F, r1
     568:	10 92 3e 01 	sts	0x013E, r1
					Task_04__GoTo_Next_Step	;
     56c:	80 91 3d 01 	lds	r24, 0x013D
     570:	8f 5f       	subi	r24, 0xFF	; 255
     572:	80 93 3d 01 	sts	0x013D, r24
				}

				break;
     576:	1d c0       	rjmp	.+58     	; 0x5b2 <Task_04+0xc4>
			}
			case 3 :
			{
				a++;
     578:	80 91 3e 01 	lds	r24, 0x013E
     57c:	90 91 3f 01 	lds	r25, 0x013F
     580:	01 96       	adiw	r24, 0x01	; 1
     582:	90 93 3f 01 	sts	0x013F, r25
     586:	80 93 3e 01 	sts	0x013E, r24

				if (a == 30000)
     58a:	80 91 3e 01 	lds	r24, 0x013E
     58e:	90 91 3f 01 	lds	r25, 0x013F
     592:	80 33       	cpi	r24, 0x30	; 48
     594:	f5 e7       	ldi	r31, 0x75	; 117
     596:	9f 07       	cpc	r25, r31
     598:	71 f4       	brne	.+28     	; 0x5b6 <Task_04+0xc8>
				{
					UDR0 = 0x00;
     59a:	8c e2       	ldi	r24, 0x2C	; 44
     59c:	90 e0       	ldi	r25, 0x00	; 0
     59e:	fc 01       	movw	r30, r24
     5a0:	10 82       	st	Z, r1
					Task_04__Task_Stop;
     5a2:	10 92 3d 01 	sts	0x013D, r1
					Task_02__Task_Start;
     5a6:	81 e0       	ldi	r24, 0x01	; 1
     5a8:	80 93 3b 01 	sts	0x013B, r24
				}

				break;
     5ac:	04 c0       	rjmp	.+8      	; 0x5b6 <Task_04+0xc8>

	{
			case 0 :
			{

				break;
     5ae:	00 00       	nop
     5b0:	03 c0       	rjmp	.+6      	; 0x5b8 <Task_04+0xca>
					UDR0 = SAVE;
					a=0;
					Task_04__GoTo_Next_Step	;
				}

				break;
     5b2:	00 00       	nop
     5b4:	01 c0       	rjmp	.+2      	; 0x5b8 <Task_04+0xca>
					UDR0 = 0x00;
					Task_04__Task_Stop;
					Task_02__Task_Start;
				}

				break;
     5b6:	00 00       	nop





}
     5b8:	df 91       	pop	r29
     5ba:	cf 91       	pop	r28
     5bc:	08 95       	ret

000005be <Task_05>:
unsigned short j=0;
char bla = 0;


void Task_05(void)
{
     5be:	cf 93       	push	r28
     5c0:	df 93       	push	r29
     5c2:	cd b7       	in	r28, 0x3d	; 61
     5c4:	de b7       	in	r29, 0x3e	; 62



	switch(Task_05_Step )
     5c6:	80 91 40 01 	lds	r24, 0x0140
     5ca:	88 2f       	mov	r24, r24
     5cc:	90 e0       	ldi	r25, 0x00	; 0
     5ce:	82 30       	cpi	r24, 0x02	; 2
     5d0:	91 05       	cpc	r25, r1
     5d2:	e1 f0       	breq	.+56     	; 0x60c <Task_05+0x4e>
     5d4:	83 30       	cpi	r24, 0x03	; 3
     5d6:	91 05       	cpc	r25, r1
     5d8:	3c f4       	brge	.+14     	; 0x5e8 <Task_05+0x2a>
     5da:	00 97       	sbiw	r24, 0x00	; 0
     5dc:	09 f4       	brne	.+2      	; 0x5e0 <Task_05+0x22>
     5de:	c4 c0       	rjmp	.+392    	; 0x768 <Task_05+0x1aa>
     5e0:	81 30       	cpi	r24, 0x01	; 1
     5e2:	91 05       	cpc	r25, r1
     5e4:	51 f0       	breq	.+20     	; 0x5fa <Task_05+0x3c>
     5e6:	c7 c0       	rjmp	.+398    	; 0x776 <Task_05+0x1b8>
     5e8:	83 30       	cpi	r24, 0x03	; 3
     5ea:	91 05       	cpc	r25, r1
     5ec:	09 f4       	brne	.+2      	; 0x5f0 <Task_05+0x32>
     5ee:	71 c0       	rjmp	.+226    	; 0x6d2 <Task_05+0x114>
     5f0:	84 30       	cpi	r24, 0x04	; 4
     5f2:	91 05       	cpc	r25, r1
     5f4:	09 f4       	brne	.+2      	; 0x5f8 <Task_05+0x3a>
     5f6:	95 c0       	rjmp	.+298    	; 0x722 <Task_05+0x164>
     5f8:	be c0       	rjmp	.+380    	; 0x776 <Task_05+0x1b8>
			//################################################################################

			case 1 :
			{

				Task_02__Task_Start;
     5fa:	81 e0       	ldi	r24, 0x01	; 1
     5fc:	80 93 3b 01 	sts	0x013B, r24
				//USART2_Waiting_For_Free ;

				//sprintf(USART2_buffer,"xxxxxxxxxx \n\r");
				//USART2_Transmit();

				Task_05__GoTo_Next_Step	;
     600:	80 91 40 01 	lds	r24, 0x0140
     604:	8f 5f       	subi	r24, 0xFF	; 255
     606:	80 93 40 01 	sts	0x0140, r24

				//Task_05__Task_Stop;
				break;
     60a:	b5 c0       	rjmp	.+362    	; 0x776 <Task_05+0x1b8>

			}
			case 2 :
			{
				if(Task_02_Step  == 0)
     60c:	80 91 3b 01 	lds	r24, 0x013B
     610:	88 23       	and	r24, r24
     612:	09 f0       	breq	.+2      	; 0x616 <Task_05+0x58>
     614:	ab c0       	rjmp	.+342    	; 0x76c <Task_05+0x1ae>
				{



				     if(MyVel._long < 800 )
     616:	80 91 50 01 	lds	r24, 0x0150
     61a:	90 91 51 01 	lds	r25, 0x0151
     61e:	a0 91 52 01 	lds	r26, 0x0152
     622:	b0 91 53 01 	lds	r27, 0x0153
     626:	80 32       	cpi	r24, 0x20	; 32
     628:	23 e0       	ldi	r18, 0x03	; 3
     62a:	92 07       	cpc	r25, r18
     62c:	a1 05       	cpc	r26, r1
     62e:	b1 05       	cpc	r27, r1
     630:	d0 f4       	brcc	.+52     	; 0x666 <Task_05+0xa8>
				     {


				    	 UDR0 = 0;
     632:	8c e2       	ldi	r24, 0x2C	; 44
     634:	90 e0       	ldi	r25, 0x00	; 0
     636:	fc 01       	movw	r30, r24
     638:	10 82       	st	Z, r1

						 USART2_Waiting_For_Free ;
     63a:	80 91 47 01 	lds	r24, 0x0147
     63e:	88 23       	and	r24, r24
     640:	e1 f7       	brne	.-8      	; 0x63a <Task_05+0x7c>
						 sprintf(USART2_buffer,"y");
     642:	89 e7       	ldi	r24, 0x79	; 121
     644:	90 e0       	ldi	r25, 0x00	; 0
     646:	90 93 d8 01 	sts	0x01D8, r25
     64a:	80 93 d7 01 	sts	0x01D7, r24
						 USART2_Transmit();
     64e:	0e 94 f3 03 	call	0x7e6	; 0x7e6 <USART2_Transmit>
						 USART2_Waiting_For_Free ;
     652:	80 91 47 01 	lds	r24, 0x0147
     656:	88 23       	and	r24, r24
     658:	e1 f7       	brne	.-8      	; 0x652 <Task_05+0x94>
						 //UDR0 = 0x58;
						 //Task_05__Task_Stop;
						 Task_05__GoTo_Next_Step;
     65a:	80 91 40 01 	lds	r24, 0x0140
     65e:	8f 5f       	subi	r24, 0xFF	; 255
     660:	80 93 40 01 	sts	0x0140, r24


				}


				break;
     664:	83 c0       	rjmp	.+262    	; 0x76c <Task_05+0x1ae>
						 Task_05__GoTo_Next_Step;
						 //Task_05__Task_Start;
					  }
				     else //if(MyVel._long > 900)
					 {
				    	 UDR0 = 0x18;
     666:	8c e2       	ldi	r24, 0x2C	; 44
     668:	90 e0       	ldi	r25, 0x00	; 0
     66a:	28 e1       	ldi	r18, 0x18	; 24
     66c:	fc 01       	movw	r30, r24
     66e:	20 83       	st	Z, r18

				    	 USART2_Waiting_For_Free ;
     670:	80 91 47 01 	lds	r24, 0x0147
     674:	88 23       	and	r24, r24
     676:	e1 f7       	brne	.-8      	; 0x670 <Task_05+0xb2>
				    	 sprintf(USART2_buffer," xxxxxxxx %lu\n\r", MyVel._long);
     678:	80 91 50 01 	lds	r24, 0x0150
     67c:	90 91 51 01 	lds	r25, 0x0151
     680:	a0 91 52 01 	lds	r26, 0x0152
     684:	b0 91 53 01 	lds	r27, 0x0153
     688:	2b 2f       	mov	r18, r27
     68a:	2f 93       	push	r18
     68c:	2a 2f       	mov	r18, r26
     68e:	2f 93       	push	r18
     690:	29 2f       	mov	r18, r25
     692:	2f 93       	push	r18
     694:	8f 93       	push	r24
     696:	81 e2       	ldi	r24, 0x21	; 33
     698:	91 e0       	ldi	r25, 0x01	; 1
     69a:	89 2f       	mov	r24, r25
     69c:	8f 93       	push	r24
     69e:	81 e2       	ldi	r24, 0x21	; 33
     6a0:	91 e0       	ldi	r25, 0x01	; 1
     6a2:	8f 93       	push	r24
     6a4:	87 ed       	ldi	r24, 0xD7	; 215
     6a6:	91 e0       	ldi	r25, 0x01	; 1
     6a8:	89 2f       	mov	r24, r25
     6aa:	8f 93       	push	r24
     6ac:	87 ed       	ldi	r24, 0xD7	; 215
     6ae:	91 e0       	ldi	r25, 0x01	; 1
     6b0:	8f 93       	push	r24
     6b2:	0e 94 19 0a 	call	0x1432	; 0x1432 <sprintf>
     6b6:	8d b7       	in	r24, 0x3d	; 61
     6b8:	9e b7       	in	r25, 0x3e	; 62
     6ba:	08 96       	adiw	r24, 0x08	; 8
     6bc:	0f b6       	in	r0, 0x3f	; 63
     6be:	f8 94       	cli
     6c0:	de bf       	out	0x3e, r29	; 62
     6c2:	0f be       	out	0x3f, r0	; 63
     6c4:	cd bf       	out	0x3d, r28	; 61
				    	 USART2_Transmit();
     6c6:	0e 94 f3 03 	call	0x7e6	; 0x7e6 <USART2_Transmit>
				    	 //Task_05__Task_Stop;
				    	 //Task_05__GoTo_Next_Step;
				    	 Task_05__Task_Start;
     6ca:	81 e0       	ldi	r24, 0x01	; 1
     6cc:	80 93 40 01 	sts	0x0140, r24


				}


				break;
     6d0:	4d c0       	rjmp	.+154    	; 0x76c <Task_05+0x1ae>

			}
			case 3 :
			{

				bla++;
     6d2:	80 91 43 01 	lds	r24, 0x0143
     6d6:	8f 5f       	subi	r24, 0xFF	; 255
     6d8:	80 93 43 01 	sts	0x0143, r24
				if (bla == 100) {
     6dc:	80 91 43 01 	lds	r24, 0x0143
     6e0:	84 36       	cpi	r24, 0x64	; 100
     6e2:	31 f4       	brne	.+12     	; 0x6f0 <Task_05+0x132>
					UDR0 = 0;
     6e4:	8c e2       	ldi	r24, 0x2C	; 44
     6e6:	90 e0       	ldi	r25, 0x00	; 0
     6e8:	fc 01       	movw	r30, r24
     6ea:	10 82       	st	Z, r1
					bla = 0;
     6ec:	10 92 43 01 	sts	0x0143, r1
				}
				//USART2_Waiting_For_Free ;
				//sprintf(USART2_buffer,"g");
				//USART2_Transmit();

				j++;
     6f0:	80 91 41 01 	lds	r24, 0x0141
     6f4:	90 91 42 01 	lds	r25, 0x0142
     6f8:	01 96       	adiw	r24, 0x01	; 1
     6fa:	90 93 42 01 	sts	0x0142, r25
     6fe:	80 93 41 01 	sts	0x0141, r24
				//UDR0 = 0x00;
				UDR0 = 0x5A;
     702:	8c e2       	ldi	r24, 0x2C	; 44
     704:	90 e0       	ldi	r25, 0x00	; 0
     706:	2a e5       	ldi	r18, 0x5A	; 90
     708:	fc 01       	movw	r30, r24
     70a:	20 83       	st	Z, r18
				if (j==100)
     70c:	80 91 41 01 	lds	r24, 0x0141
     710:	90 91 42 01 	lds	r25, 0x0142
     714:	84 36       	cpi	r24, 0x64	; 100
     716:	91 05       	cpc	r25, r1
     718:	59 f5       	brne	.+86     	; 0x770 <Task_05+0x1b2>
				{
					Task_05__Task_Start;
     71a:	81 e0       	ldi	r24, 0x01	; 1
     71c:	80 93 40 01 	sts	0x0140, r24
				}

					break;
     720:	27 c0       	rjmp	.+78     	; 0x770 <Task_05+0x1b2>
			}
			case 4 :
			{
				UDR0=0x26;
     722:	8c e2       	ldi	r24, 0x2C	; 44
     724:	90 e0       	ldi	r25, 0x00	; 0
     726:	26 e2       	ldi	r18, 0x26	; 38
     728:	fc 01       	movw	r30, r24
     72a:	20 83       	st	Z, r18
				Task_02__Task_Start;
     72c:	81 e0       	ldi	r24, 0x01	; 1
     72e:	80 93 3b 01 	sts	0x013B, r24

				if(MyVel._long > 800)
     732:	80 91 50 01 	lds	r24, 0x0150
     736:	90 91 51 01 	lds	r25, 0x0151
     73a:	a0 91 52 01 	lds	r26, 0x0152
     73e:	b0 91 53 01 	lds	r27, 0x0153
     742:	81 32       	cpi	r24, 0x21	; 33
     744:	f3 e0       	ldi	r31, 0x03	; 3
     746:	9f 07       	cpc	r25, r31
     748:	a1 05       	cpc	r26, r1
     74a:	b1 05       	cpc	r27, r1
     74c:	98 f0       	brcs	.+38     	; 0x774 <Task_05+0x1b6>
				{
						UDR0 = 0x00;
     74e:	8c e2       	ldi	r24, 0x2C	; 44
     750:	90 e0       	ldi	r25, 0x00	; 0
     752:	fc 01       	movw	r30, r24
     754:	10 82       	st	Z, r1
						UDR0 = 0x17;
     756:	8c e2       	ldi	r24, 0x2C	; 44
     758:	90 e0       	ldi	r25, 0x00	; 0
     75a:	27 e1       	ldi	r18, 0x17	; 23
     75c:	fc 01       	movw	r30, r24
     75e:	20 83       	st	Z, r18
						Task_05__Task_Start;
     760:	81 e0       	ldi	r24, 0x01	; 1
     762:	80 93 40 01 	sts	0x0140, r24
				}
				//Task_05__Task_Start;


				break;
     766:	06 c0       	rjmp	.+12     	; 0x774 <Task_05+0x1b6>

	{
			case 0 :
			{

				break;
     768:	00 00       	nop
     76a:	05 c0       	rjmp	.+10     	; 0x776 <Task_05+0x1b8>


				}


				break;
     76c:	00 00       	nop
     76e:	03 c0       	rjmp	.+6      	; 0x776 <Task_05+0x1b8>
				if (j==100)
				{
					Task_05__Task_Start;
				}

					break;
     770:	00 00       	nop
     772:	01 c0       	rjmp	.+2      	; 0x776 <Task_05+0x1b8>
						Task_05__Task_Start;
				}
				//Task_05__Task_Start;


				break;
     774:	00 00       	nop





}
     776:	df 91       	pop	r29
     778:	cf 91       	pop	r28
     77a:	08 95       	ret

0000077c <USART_Init>:


//###################################################################

void USART_Init()
{
     77c:	cf 93       	push	r28
     77e:	df 93       	push	r29
     780:	cd b7       	in	r28, 0x3d	; 61
     782:	de b7       	in	r29, 0x3e	; 62
	UBRR0L= UBRRVAL; 					//	Set baud rate, low byte
     784:	89 e2       	ldi	r24, 0x29	; 41
     786:	90 e0       	ldi	r25, 0x00	; 0
     788:	2f e2       	ldi	r18, 0x2F	; 47
     78a:	fc 01       	movw	r30, r24
     78c:	20 83       	st	Z, r18
	UBRR0H=(UBRRVAL>>8);				//	Set baud rate, high byte
     78e:	80 e9       	ldi	r24, 0x90	; 144
     790:	90 e0       	ldi	r25, 0x00	; 0
     792:	fc 01       	movw	r30, r24
     794:	10 82       	st	Z, r1

	UCSR0C=(0<<UMSEL0)|					//
     796:	85 e9       	ldi	r24, 0x95	; 149
     798:	90 e0       	ldi	r25, 0x00	; 0
     79a:	26 e0       	ldi	r18, 0x06	; 6
     79c:	fc 01       	movw	r30, r24
     79e:	20 83       	st	Z, r18
		  (0<<UPM00) |					//
		  (0<<USBS0) |					//
		  (1<<UCSZ01)|					//
		  (1<<UCSZ00)|					//
		  (0<<UCPOL0);					//
	UCSR0B=(0<<RXEN) |					//	Enable USART Receiver
     7a0:	8a e2       	ldi	r24, 0x2A	; 42
     7a2:	90 e0       	ldi	r25, 0x00	; 0
     7a4:	28 e0       	ldi	r18, 0x08	; 8
     7a6:	fc 01       	movw	r30, r24
     7a8:	20 83       	st	Z, r18
	      (1<<TXEN) |					//	Enable USART Transmitter
		  (0<<RXCIE)|					//	Enable USART Interrupt on receive complete
		  (0<<TXCIE);

	//sei();
}
     7aa:	df 91       	pop	r29
     7ac:	cf 91       	pop	r28
     7ae:	08 95       	ret

000007b0 <USART2_Init>:


//###################################################################

void USART2_Init()
{
     7b0:	cf 93       	push	r28
     7b2:	df 93       	push	r29
     7b4:	cd b7       	in	r28, 0x3d	; 61
     7b6:	de b7       	in	r29, 0x3e	; 62
	UBRR1L= UBRRVAL2; 					//	Set baud rate, low byte
     7b8:	89 e9       	ldi	r24, 0x99	; 153
     7ba:	90 e0       	ldi	r25, 0x00	; 0
     7bc:	2f e2       	ldi	r18, 0x2F	; 47
     7be:	fc 01       	movw	r30, r24
     7c0:	20 83       	st	Z, r18
	UBRR1H=(UBRRVAL2>>8);				//	Set baud rate, high byte
     7c2:	88 e9       	ldi	r24, 0x98	; 152
     7c4:	90 e0       	ldi	r25, 0x00	; 0
     7c6:	fc 01       	movw	r30, r24
     7c8:	10 82       	st	Z, r1

	UCSR1C=(0<<UMSEL1)|					//
     7ca:	8d e9       	ldi	r24, 0x9D	; 157
     7cc:	90 e0       	ldi	r25, 0x00	; 0
     7ce:	26 e0       	ldi	r18, 0x06	; 6
     7d0:	fc 01       	movw	r30, r24
     7d2:	20 83       	st	Z, r18
		  (0<<UPM10) |					//
		  (0<<USBS1) |					//
		  (1<<UCSZ11)|					//
		  (1<<UCSZ10)|					//
		  (0<<UCPOL1);					//
	UCSR1B=(1<<RXEN1) |					//	Enable USART Receiver
     7d4:	8a e9       	ldi	r24, 0x9A	; 154
     7d6:	90 e0       	ldi	r25, 0x00	; 0
     7d8:	28 ed       	ldi	r18, 0xD8	; 216
     7da:	fc 01       	movw	r30, r24
     7dc:	20 83       	st	Z, r18
	      (1<<TXEN1) |					//	Enable USART Transmitter
		  (1<<RXCIE1)|					//	Enable USART Interrupt on receive complete
		  (1<<TXCIE1);

	sei();
     7de:	78 94       	sei
}
     7e0:	df 91       	pop	r29
     7e2:	cf 91       	pop	r28
     7e4:	08 95       	ret

000007e6 <USART2_Transmit>:

void USART2_Transmit()
{
     7e6:	cf 93       	push	r28
     7e8:	df 93       	push	r29
     7ea:	cd b7       	in	r28, 0x3d	; 61
     7ec:	de b7       	in	r29, 0x3e	; 62
	USART2_Positone = 0 ;
     7ee:	10 92 46 01 	sts	0x0146, r1
	if (USART2_buffer[USART2_Positone]!=0)
     7f2:	80 91 46 01 	lds	r24, 0x0146
     7f6:	88 2f       	mov	r24, r24
     7f8:	90 e0       	ldi	r25, 0x00	; 0
     7fa:	89 52       	subi	r24, 0x29	; 41
     7fc:	9e 4f       	sbci	r25, 0xFE	; 254
     7fe:	fc 01       	movw	r30, r24
     800:	80 81       	ld	r24, Z
     802:	88 23       	and	r24, r24
     804:	81 f0       	breq	.+32     	; 0x826 <USART2_Transmit+0x40>
	{
		USART2_Busy = 1 ;
     806:	81 e0       	ldi	r24, 0x01	; 1
     808:	80 93 47 01 	sts	0x0147, r24
		UDR1=USART2_buffer[USART2_Positone];
     80c:	8c e9       	ldi	r24, 0x9C	; 156
     80e:	90 e0       	ldi	r25, 0x00	; 0
     810:	20 91 46 01 	lds	r18, 0x0146
     814:	22 2f       	mov	r18, r18
     816:	30 e0       	ldi	r19, 0x00	; 0
     818:	29 52       	subi	r18, 0x29	; 41
     81a:	3e 4f       	sbci	r19, 0xFE	; 254
     81c:	f9 01       	movw	r30, r18
     81e:	20 81       	ld	r18, Z
     820:	fc 01       	movw	r30, r24
     822:	20 83       	st	Z, r18
     824:	02 c0       	rjmp	.+4      	; 0x82a <USART2_Transmit+0x44>
	} else {
		USART2_Busy = 0 ;
     826:	10 92 47 01 	sts	0x0147, r1
	}
}
     82a:	df 91       	pop	r29
     82c:	cf 91       	pop	r28
     82e:	08 95       	ret

00000830 <__vector_32>:

ISR(USART1_TX_vect)
{
     830:	1f 92       	push	r1
     832:	0f 92       	push	r0
     834:	00 90 5f 00 	lds	r0, 0x005F
     838:	0f 92       	push	r0
     83a:	11 24       	eor	r1, r1
     83c:	00 90 5b 00 	lds	r0, 0x005B
     840:	0f 92       	push	r0
     842:	10 92 5b 00 	sts	0x005B, r1
     846:	2f 93       	push	r18
     848:	3f 93       	push	r19
     84a:	8f 93       	push	r24
     84c:	9f 93       	push	r25
     84e:	ef 93       	push	r30
     850:	ff 93       	push	r31
     852:	cf 93       	push	r28
     854:	df 93       	push	r29
     856:	cd b7       	in	r28, 0x3d	; 61
     858:	de b7       	in	r29, 0x3e	; 62
	USART2_Positone ++;
     85a:	80 91 46 01 	lds	r24, 0x0146
     85e:	8f 5f       	subi	r24, 0xFF	; 255
     860:	80 93 46 01 	sts	0x0146, r24
	if (USART2_buffer[USART2_Positone]!=0)  {
     864:	80 91 46 01 	lds	r24, 0x0146
     868:	88 2f       	mov	r24, r24
     86a:	90 e0       	ldi	r25, 0x00	; 0
     86c:	89 52       	subi	r24, 0x29	; 41
     86e:	9e 4f       	sbci	r25, 0xFE	; 254
     870:	fc 01       	movw	r30, r24
     872:	80 81       	ld	r24, Z
     874:	88 23       	and	r24, r24
     876:	69 f0       	breq	.+26     	; 0x892 <__vector_32+0x62>
		UDR1=USART2_buffer[USART2_Positone];
     878:	8c e9       	ldi	r24, 0x9C	; 156
     87a:	90 e0       	ldi	r25, 0x00	; 0
     87c:	20 91 46 01 	lds	r18, 0x0146
     880:	22 2f       	mov	r18, r18
     882:	30 e0       	ldi	r19, 0x00	; 0
     884:	29 52       	subi	r18, 0x29	; 41
     886:	3e 4f       	sbci	r19, 0xFE	; 254
     888:	f9 01       	movw	r30, r18
     88a:	20 81       	ld	r18, Z
     88c:	fc 01       	movw	r30, r24
     88e:	20 83       	st	Z, r18
     890:	02 c0       	rjmp	.+4      	; 0x896 <__vector_32+0x66>
	} else {
		USART2_Busy = 0;
     892:	10 92 47 01 	sts	0x0147, r1
	}
}
     896:	df 91       	pop	r29
     898:	cf 91       	pop	r28
     89a:	ff 91       	pop	r31
     89c:	ef 91       	pop	r30
     89e:	9f 91       	pop	r25
     8a0:	8f 91       	pop	r24
     8a2:	3f 91       	pop	r19
     8a4:	2f 91       	pop	r18
     8a6:	0f 90       	pop	r0
     8a8:	00 92 5b 00 	sts	0x005B, r0
     8ac:	0f 90       	pop	r0
     8ae:	00 92 5f 00 	sts	0x005F, r0
     8b2:	0f 90       	pop	r0
     8b4:	1f 90       	pop	r1
     8b6:	18 95       	reti

000008b8 <__vector_30>:

ISR(USART1_RX_vect) {
     8b8:	1f 92       	push	r1
     8ba:	0f 92       	push	r0
     8bc:	00 90 5f 00 	lds	r0, 0x005F
     8c0:	0f 92       	push	r0
     8c2:	11 24       	eor	r1, r1
     8c4:	00 90 5b 00 	lds	r0, 0x005B
     8c8:	0f 92       	push	r0
     8ca:	10 92 5b 00 	sts	0x005B, r1
     8ce:	2f 93       	push	r18
     8d0:	3f 93       	push	r19
     8d2:	4f 93       	push	r20
     8d4:	5f 93       	push	r21
     8d6:	6f 93       	push	r22
     8d8:	7f 93       	push	r23
     8da:	8f 93       	push	r24
     8dc:	9f 93       	push	r25
     8de:	af 93       	push	r26
     8e0:	bf 93       	push	r27
     8e2:	ef 93       	push	r30
     8e4:	ff 93       	push	r31
     8e6:	cf 93       	push	r28
     8e8:	df 93       	push	r29
     8ea:	cd b7       	in	r28, 0x3d	; 61
     8ec:	de b7       	in	r29, 0x3e	; 62

	USART2_Vel = UDR1;
     8ee:	8c e9       	ldi	r24, 0x9C	; 156
     8f0:	90 e0       	ldi	r25, 0x00	; 0
     8f2:	fc 01       	movw	r30, r24
     8f4:	80 81       	ld	r24, Z
     8f6:	80 93 d6 01 	sts	0x01D6, r24
	Task_03();
     8fa:	0e 94 07 02 	call	0x40e	; 0x40e <Task_03>

}
     8fe:	df 91       	pop	r29
     900:	cf 91       	pop	r28
     902:	ff 91       	pop	r31
     904:	ef 91       	pop	r30
     906:	bf 91       	pop	r27
     908:	af 91       	pop	r26
     90a:	9f 91       	pop	r25
     90c:	8f 91       	pop	r24
     90e:	7f 91       	pop	r23
     910:	6f 91       	pop	r22
     912:	5f 91       	pop	r21
     914:	4f 91       	pop	r20
     916:	3f 91       	pop	r19
     918:	2f 91       	pop	r18
     91a:	0f 90       	pop	r0
     91c:	00 92 5b 00 	sts	0x005B, r0
     920:	0f 90       	pop	r0
     922:	00 92 5f 00 	sts	0x005F, r0
     926:	0f 90       	pop	r0
     928:	1f 90       	pop	r1
     92a:	18 95       	reti

0000092c <main>:

#include "ROOT.h"
#include <util/delay.h>


int main(void) {
     92c:	cf 93       	push	r28
     92e:	df 93       	push	r29
     930:	00 d0       	rcall	.+0      	; 0x932 <main+0x6>
     932:	cd b7       	in	r28, 0x3d	; 61
     934:	de b7       	in	r29, 0x3e	; 62

	int xxx=0;
     936:	1a 82       	std	Y+2, r1	; 0x02
     938:	19 82       	std	Y+1, r1	; 0x01

	gamura_init();
     93a:	0e 94 13 01 	call	0x226	; 0x226 <gamura_init>
	USART_Init();
     93e:	0e 94 be 03 	call	0x77c	; 0x77c <USART_Init>
	USART2_Init();
     942:	0e 94 d8 03 	call	0x7b0	; 0x7b0 <USART2_Init>

	 Task_01__Task_Stop;
     946:	10 92 3a 01 	sts	0x013A, r1
	 Task_02__Task_Stop;
     94a:	10 92 3b 01 	sts	0x013B, r1
	 //Task_02__Task_Start;
	 Task_03__Task_Stop;
     94e:	10 92 3c 01 	sts	0x013C, r1
	 Task_04__Task_Stop;
     952:	10 92 3d 01 	sts	0x013D, r1
	 Task_05__Task_Start;
     956:	81 e0       	ldi	r24, 0x01	; 1
     958:	80 93 40 01 	sts	0x0140, r24
	while (1) {

		Task_02();
     95c:	0e 94 aa 00 	call	0x154	; 0x154 <Task_02>
		Task_01();
     960:	0e 94 67 00 	call	0xce	; 0xce <Task_01>
		//Task_04();
		Task_05();
     964:	0e 94 df 02 	call	0x5be	; 0x5be <Task_05>
		//Task_03();
	}
     968:	f9 cf       	rjmp	.-14     	; 0x95c <main+0x30>

0000096a <__fixunssfsi>:
     96a:	cf 92       	push	r12
     96c:	df 92       	push	r13
     96e:	ef 92       	push	r14
     970:	ff 92       	push	r15
     972:	0f 93       	push	r16
     974:	1f 93       	push	r17
     976:	6b 01       	movw	r12, r22
     978:	7c 01       	movw	r14, r24
     97a:	20 e0       	ldi	r18, 0x00	; 0
     97c:	30 e0       	ldi	r19, 0x00	; 0
     97e:	40 e0       	ldi	r20, 0x00	; 0
     980:	5f e4       	ldi	r21, 0x4F	; 79
     982:	0e 94 a4 07 	call	0xf48	; 0xf48 <__gesf2>
     986:	87 fd       	sbrc	r24, 7
     988:	0e c0       	rjmp	.+28     	; 0x9a6 <__fixunssfsi+0x3c>
     98a:	20 e0       	ldi	r18, 0x00	; 0
     98c:	30 e0       	ldi	r19, 0x00	; 0
     98e:	40 e0       	ldi	r20, 0x00	; 0
     990:	5f e4       	ldi	r21, 0x4F	; 79
     992:	c7 01       	movw	r24, r14
     994:	b6 01       	movw	r22, r12
     996:	0e 94 60 06 	call	0xcc0	; 0xcc0 <__subsf3>
     99a:	0e 94 02 08 	call	0x1004	; 0x1004 <__fixsfsi>
     99e:	8b 01       	movw	r16, r22
     9a0:	9c 01       	movw	r18, r24
     9a2:	30 58       	subi	r19, 0x80	; 128
     9a4:	06 c0       	rjmp	.+12     	; 0x9b2 <__fixunssfsi+0x48>
     9a6:	c7 01       	movw	r24, r14
     9a8:	b6 01       	movw	r22, r12
     9aa:	0e 94 02 08 	call	0x1004	; 0x1004 <__fixsfsi>
     9ae:	8b 01       	movw	r16, r22
     9b0:	9c 01       	movw	r18, r24
     9b2:	b8 01       	movw	r22, r16
     9b4:	c9 01       	movw	r24, r18
     9b6:	1f 91       	pop	r17
     9b8:	0f 91       	pop	r16
     9ba:	ff 90       	pop	r15
     9bc:	ef 90       	pop	r14
     9be:	df 90       	pop	r13
     9c0:	cf 90       	pop	r12
     9c2:	08 95       	ret

000009c4 <_fpadd_parts>:
     9c4:	a0 e0       	ldi	r26, 0x00	; 0
     9c6:	b0 e0       	ldi	r27, 0x00	; 0
     9c8:	e8 ee       	ldi	r30, 0xE8	; 232
     9ca:	f4 e0       	ldi	r31, 0x04	; 4
     9cc:	0c 94 e6 09 	jmp	0x13cc	; 0x13cc <__prologue_saves__+0x8>
     9d0:	3c 01       	movw	r6, r24
     9d2:	cb 01       	movw	r24, r22
     9d4:	ea 01       	movw	r28, r20
     9d6:	d3 01       	movw	r26, r6
     9d8:	2c 91       	ld	r18, X
     9da:	22 30       	cpi	r18, 0x02	; 2
     9dc:	08 f4       	brcc	.+2      	; 0x9e0 <_fpadd_parts+0x1c>
     9de:	3e c1       	rjmp	.+636    	; 0xc5c <_fpadd_parts+0x298>
     9e0:	fb 01       	movw	r30, r22
     9e2:	30 81       	ld	r19, Z
     9e4:	32 30       	cpi	r19, 0x02	; 2
     9e6:	08 f4       	brcc	.+2      	; 0x9ea <_fpadd_parts+0x26>
     9e8:	36 c1       	rjmp	.+620    	; 0xc56 <_fpadd_parts+0x292>
     9ea:	24 30       	cpi	r18, 0x04	; 4
     9ec:	71 f4       	brne	.+28     	; 0xa0a <_fpadd_parts+0x46>
     9ee:	34 30       	cpi	r19, 0x04	; 4
     9f0:	09 f0       	breq	.+2      	; 0x9f4 <_fpadd_parts+0x30>
     9f2:	34 c1       	rjmp	.+616    	; 0xc5c <_fpadd_parts+0x298>
     9f4:	11 96       	adiw	r26, 0x01	; 1
     9f6:	2c 91       	ld	r18, X
     9f8:	81 81       	ldd	r24, Z+1	; 0x01
     9fa:	28 17       	cp	r18, r24
     9fc:	09 f4       	brne	.+2      	; 0xa00 <_fpadd_parts+0x3c>
     9fe:	2e c1       	rjmp	.+604    	; 0xc5c <_fpadd_parts+0x298>
     a00:	b1 e3       	ldi	r27, 0x31	; 49
     a02:	6b 2e       	mov	r6, r27
     a04:	b1 e0       	ldi	r27, 0x01	; 1
     a06:	7b 2e       	mov	r7, r27
     a08:	29 c1       	rjmp	.+594    	; 0xc5c <_fpadd_parts+0x298>
     a0a:	34 30       	cpi	r19, 0x04	; 4
     a0c:	09 f4       	brne	.+2      	; 0xa10 <_fpadd_parts+0x4c>
     a0e:	23 c1       	rjmp	.+582    	; 0xc56 <_fpadd_parts+0x292>
     a10:	32 30       	cpi	r19, 0x02	; 2
     a12:	91 f4       	brne	.+36     	; 0xa38 <_fpadd_parts+0x74>
     a14:	22 30       	cpi	r18, 0x02	; 2
     a16:	09 f0       	breq	.+2      	; 0xa1a <_fpadd_parts+0x56>
     a18:	21 c1       	rjmp	.+578    	; 0xc5c <_fpadd_parts+0x298>
     a1a:	28 e0       	ldi	r18, 0x08	; 8
     a1c:	f3 01       	movw	r30, r6
     a1e:	da 01       	movw	r26, r20
     a20:	01 90       	ld	r0, Z+
     a22:	0d 92       	st	X+, r0
     a24:	2a 95       	dec	r18
     a26:	e1 f7       	brne	.-8      	; 0xa20 <_fpadd_parts+0x5c>
     a28:	db 01       	movw	r26, r22
     a2a:	11 96       	adiw	r26, 0x01	; 1
     a2c:	8c 91       	ld	r24, X
     a2e:	f3 01       	movw	r30, r6
     a30:	91 81       	ldd	r25, Z+1	; 0x01
     a32:	89 23       	and	r24, r25
     a34:	89 83       	std	Y+1, r24	; 0x01
     a36:	11 c1       	rjmp	.+546    	; 0xc5a <_fpadd_parts+0x296>
     a38:	22 30       	cpi	r18, 0x02	; 2
     a3a:	09 f4       	brne	.+2      	; 0xa3e <_fpadd_parts+0x7a>
     a3c:	0c c1       	rjmp	.+536    	; 0xc56 <_fpadd_parts+0x292>
     a3e:	d3 01       	movw	r26, r6
     a40:	12 96       	adiw	r26, 0x02	; 2
     a42:	ed 91       	ld	r30, X+
     a44:	fc 91       	ld	r31, X
     a46:	13 97       	sbiw	r26, 0x03	; 3
     a48:	db 01       	movw	r26, r22
     a4a:	12 96       	adiw	r26, 0x02	; 2
     a4c:	6d 91       	ld	r22, X+
     a4e:	7c 91       	ld	r23, X
     a50:	13 97       	sbiw	r26, 0x03	; 3
     a52:	d3 01       	movw	r26, r6
     a54:	14 96       	adiw	r26, 0x04	; 4
     a56:	0d 91       	ld	r16, X+
     a58:	1d 91       	ld	r17, X+
     a5a:	2d 91       	ld	r18, X+
     a5c:	3c 91       	ld	r19, X
     a5e:	17 97       	sbiw	r26, 0x07	; 7
     a60:	dc 01       	movw	r26, r24
     a62:	14 96       	adiw	r26, 0x04	; 4
     a64:	cd 90       	ld	r12, X+
     a66:	dd 90       	ld	r13, X+
     a68:	ed 90       	ld	r14, X+
     a6a:	fc 90       	ld	r15, X
     a6c:	17 97       	sbiw	r26, 0x07	; 7
     a6e:	af 01       	movw	r20, r30
     a70:	46 1b       	sub	r20, r22
     a72:	57 0b       	sbc	r21, r23
     a74:	da 01       	movw	r26, r20
     a76:	57 ff       	sbrs	r21, 7
     a78:	04 c0       	rjmp	.+8      	; 0xa82 <_fpadd_parts+0xbe>
     a7a:	aa 27       	eor	r26, r26
     a7c:	bb 27       	eor	r27, r27
     a7e:	a4 1b       	sub	r26, r20
     a80:	b5 0b       	sbc	r27, r21
     a82:	a0 32       	cpi	r26, 0x20	; 32
     a84:	b1 05       	cpc	r27, r1
     a86:	0c f0       	brlt	.+2      	; 0xa8a <_fpadd_parts+0xc6>
     a88:	65 c0       	rjmp	.+202    	; 0xb54 <_fpadd_parts+0x190>
     a8a:	14 16       	cp	r1, r20
     a8c:	15 06       	cpc	r1, r21
     a8e:	7c f5       	brge	.+94     	; 0xaee <_fpadd_parts+0x12a>
     a90:	b7 01       	movw	r22, r14
     a92:	a6 01       	movw	r20, r12
     a94:	0a 2e       	mov	r0, r26
     a96:	04 c0       	rjmp	.+8      	; 0xaa0 <_fpadd_parts+0xdc>
     a98:	76 95       	lsr	r23
     a9a:	67 95       	ror	r22
     a9c:	57 95       	ror	r21
     a9e:	47 95       	ror	r20
     aa0:	0a 94       	dec	r0
     aa2:	d2 f7       	brpl	.-12     	; 0xa98 <_fpadd_parts+0xd4>
     aa4:	81 2c       	mov	r8, r1
     aa6:	91 2c       	mov	r9, r1
     aa8:	54 01       	movw	r10, r8
     aaa:	83 94       	inc	r8
     aac:	04 c0       	rjmp	.+8      	; 0xab6 <_fpadd_parts+0xf2>
     aae:	88 0c       	add	r8, r8
     ab0:	99 1c       	adc	r9, r9
     ab2:	aa 1c       	adc	r10, r10
     ab4:	bb 1c       	adc	r11, r11
     ab6:	aa 95       	dec	r26
     ab8:	d2 f7       	brpl	.-12     	; 0xaae <_fpadd_parts+0xea>
     aba:	b1 e0       	ldi	r27, 0x01	; 1
     abc:	8b 1a       	sub	r8, r27
     abe:	91 08       	sbc	r9, r1
     ac0:	a1 08       	sbc	r10, r1
     ac2:	b1 08       	sbc	r11, r1
     ac4:	8c 20       	and	r8, r12
     ac6:	9d 20       	and	r9, r13
     ac8:	ae 20       	and	r10, r14
     aca:	bf 20       	and	r11, r15
     acc:	c1 2c       	mov	r12, r1
     ace:	d1 2c       	mov	r13, r1
     ad0:	76 01       	movw	r14, r12
     ad2:	c3 94       	inc	r12
     ad4:	81 14       	cp	r8, r1
     ad6:	91 04       	cpc	r9, r1
     ad8:	a1 04       	cpc	r10, r1
     ada:	b1 04       	cpc	r11, r1
     adc:	19 f4       	brne	.+6      	; 0xae4 <_fpadd_parts+0x120>
     ade:	c1 2c       	mov	r12, r1
     ae0:	d1 2c       	mov	r13, r1
     ae2:	76 01       	movw	r14, r12
     ae4:	c4 2a       	or	r12, r20
     ae6:	d5 2a       	or	r13, r21
     ae8:	e6 2a       	or	r14, r22
     aea:	f7 2a       	or	r15, r23
     aec:	3e c0       	rjmp	.+124    	; 0xb6a <_fpadd_parts+0x1a6>
     aee:	45 2b       	or	r20, r21
     af0:	e1 f1       	breq	.+120    	; 0xb6a <_fpadd_parts+0x1a6>
     af2:	ea 0f       	add	r30, r26
     af4:	fb 1f       	adc	r31, r27
     af6:	b9 01       	movw	r22, r18
     af8:	a8 01       	movw	r20, r16
     afa:	0a 2e       	mov	r0, r26
     afc:	04 c0       	rjmp	.+8      	; 0xb06 <_fpadd_parts+0x142>
     afe:	76 95       	lsr	r23
     b00:	67 95       	ror	r22
     b02:	57 95       	ror	r21
     b04:	47 95       	ror	r20
     b06:	0a 94       	dec	r0
     b08:	d2 f7       	brpl	.-12     	; 0xafe <_fpadd_parts+0x13a>
     b0a:	81 2c       	mov	r8, r1
     b0c:	91 2c       	mov	r9, r1
     b0e:	54 01       	movw	r10, r8
     b10:	83 94       	inc	r8
     b12:	04 c0       	rjmp	.+8      	; 0xb1c <_fpadd_parts+0x158>
     b14:	88 0c       	add	r8, r8
     b16:	99 1c       	adc	r9, r9
     b18:	aa 1c       	adc	r10, r10
     b1a:	bb 1c       	adc	r11, r11
     b1c:	aa 95       	dec	r26
     b1e:	d2 f7       	brpl	.-12     	; 0xb14 <_fpadd_parts+0x150>
     b20:	a1 e0       	ldi	r26, 0x01	; 1
     b22:	8a 1a       	sub	r8, r26
     b24:	91 08       	sbc	r9, r1
     b26:	a1 08       	sbc	r10, r1
     b28:	b1 08       	sbc	r11, r1
     b2a:	80 22       	and	r8, r16
     b2c:	91 22       	and	r9, r17
     b2e:	a2 22       	and	r10, r18
     b30:	b3 22       	and	r11, r19
     b32:	01 e0       	ldi	r16, 0x01	; 1
     b34:	10 e0       	ldi	r17, 0x00	; 0
     b36:	20 e0       	ldi	r18, 0x00	; 0
     b38:	30 e0       	ldi	r19, 0x00	; 0
     b3a:	81 14       	cp	r8, r1
     b3c:	91 04       	cpc	r9, r1
     b3e:	a1 04       	cpc	r10, r1
     b40:	b1 04       	cpc	r11, r1
     b42:	19 f4       	brne	.+6      	; 0xb4a <_fpadd_parts+0x186>
     b44:	00 e0       	ldi	r16, 0x00	; 0
     b46:	10 e0       	ldi	r17, 0x00	; 0
     b48:	98 01       	movw	r18, r16
     b4a:	04 2b       	or	r16, r20
     b4c:	15 2b       	or	r17, r21
     b4e:	26 2b       	or	r18, r22
     b50:	37 2b       	or	r19, r23
     b52:	0b c0       	rjmp	.+22     	; 0xb6a <_fpadd_parts+0x1a6>
     b54:	6e 17       	cp	r22, r30
     b56:	7f 07       	cpc	r23, r31
     b58:	24 f4       	brge	.+8      	; 0xb62 <_fpadd_parts+0x19e>
     b5a:	c1 2c       	mov	r12, r1
     b5c:	d1 2c       	mov	r13, r1
     b5e:	76 01       	movw	r14, r12
     b60:	04 c0       	rjmp	.+8      	; 0xb6a <_fpadd_parts+0x1a6>
     b62:	fb 01       	movw	r30, r22
     b64:	00 e0       	ldi	r16, 0x00	; 0
     b66:	10 e0       	ldi	r17, 0x00	; 0
     b68:	98 01       	movw	r18, r16
     b6a:	d3 01       	movw	r26, r6
     b6c:	11 96       	adiw	r26, 0x01	; 1
     b6e:	4c 91       	ld	r20, X
     b70:	dc 01       	movw	r26, r24
     b72:	11 96       	adiw	r26, 0x01	; 1
     b74:	8c 91       	ld	r24, X
     b76:	48 17       	cp	r20, r24
     b78:	09 f4       	brne	.+2      	; 0xb7c <_fpadd_parts+0x1b8>
     b7a:	42 c0       	rjmp	.+132    	; 0xc00 <_fpadd_parts+0x23c>
     b7c:	44 23       	and	r20, r20
     b7e:	49 f0       	breq	.+18     	; 0xb92 <_fpadd_parts+0x1ce>
     b80:	d7 01       	movw	r26, r14
     b82:	c6 01       	movw	r24, r12
     b84:	80 1b       	sub	r24, r16
     b86:	91 0b       	sbc	r25, r17
     b88:	a2 0b       	sbc	r26, r18
     b8a:	b3 0b       	sbc	r27, r19
     b8c:	8c 01       	movw	r16, r24
     b8e:	9d 01       	movw	r18, r26
     b90:	04 c0       	rjmp	.+8      	; 0xb9a <_fpadd_parts+0x1d6>
     b92:	0c 19       	sub	r16, r12
     b94:	1d 09       	sbc	r17, r13
     b96:	2e 09       	sbc	r18, r14
     b98:	3f 09       	sbc	r19, r15
     b9a:	37 fd       	sbrc	r19, 7
     b9c:	04 c0       	rjmp	.+8      	; 0xba6 <_fpadd_parts+0x1e2>
     b9e:	19 82       	std	Y+1, r1	; 0x01
     ba0:	fb 83       	std	Y+3, r31	; 0x03
     ba2:	ea 83       	std	Y+2, r30	; 0x02
     ba4:	0b c0       	rjmp	.+22     	; 0xbbc <_fpadd_parts+0x1f8>
     ba6:	81 e0       	ldi	r24, 0x01	; 1
     ba8:	89 83       	std	Y+1, r24	; 0x01
     baa:	fb 83       	std	Y+3, r31	; 0x03
     bac:	ea 83       	std	Y+2, r30	; 0x02
     bae:	30 95       	com	r19
     bb0:	20 95       	com	r18
     bb2:	10 95       	com	r17
     bb4:	01 95       	neg	r16
     bb6:	1f 4f       	sbci	r17, 0xFF	; 255
     bb8:	2f 4f       	sbci	r18, 0xFF	; 255
     bba:	3f 4f       	sbci	r19, 0xFF	; 255
     bbc:	0c 83       	std	Y+4, r16	; 0x04
     bbe:	1d 83       	std	Y+5, r17	; 0x05
     bc0:	2e 83       	std	Y+6, r18	; 0x06
     bc2:	3f 83       	std	Y+7, r19	; 0x07
     bc4:	0d c0       	rjmp	.+26     	; 0xbe0 <_fpadd_parts+0x21c>
     bc6:	88 0f       	add	r24, r24
     bc8:	99 1f       	adc	r25, r25
     bca:	aa 1f       	adc	r26, r26
     bcc:	bb 1f       	adc	r27, r27
     bce:	8c 83       	std	Y+4, r24	; 0x04
     bd0:	9d 83       	std	Y+5, r25	; 0x05
     bd2:	ae 83       	std	Y+6, r26	; 0x06
     bd4:	bf 83       	std	Y+7, r27	; 0x07
     bd6:	8a 81       	ldd	r24, Y+2	; 0x02
     bd8:	9b 81       	ldd	r25, Y+3	; 0x03
     bda:	01 97       	sbiw	r24, 0x01	; 1
     bdc:	9b 83       	std	Y+3, r25	; 0x03
     bde:	8a 83       	std	Y+2, r24	; 0x02
     be0:	8c 81       	ldd	r24, Y+4	; 0x04
     be2:	9d 81       	ldd	r25, Y+5	; 0x05
     be4:	ae 81       	ldd	r26, Y+6	; 0x06
     be6:	bf 81       	ldd	r27, Y+7	; 0x07
     be8:	8c 01       	movw	r16, r24
     bea:	9d 01       	movw	r18, r26
     bec:	01 50       	subi	r16, 0x01	; 1
     bee:	11 09       	sbc	r17, r1
     bf0:	21 09       	sbc	r18, r1
     bf2:	31 09       	sbc	r19, r1
     bf4:	0f 3f       	cpi	r16, 0xFF	; 255
     bf6:	1f 4f       	sbci	r17, 0xFF	; 255
     bf8:	2f 4f       	sbci	r18, 0xFF	; 255
     bfa:	3f 43       	sbci	r19, 0x3F	; 63
     bfc:	20 f3       	brcs	.-56     	; 0xbc6 <_fpadd_parts+0x202>
     bfe:	0b c0       	rjmp	.+22     	; 0xc16 <_fpadd_parts+0x252>
     c00:	49 83       	std	Y+1, r20	; 0x01
     c02:	fb 83       	std	Y+3, r31	; 0x03
     c04:	ea 83       	std	Y+2, r30	; 0x02
     c06:	0c 0d       	add	r16, r12
     c08:	1d 1d       	adc	r17, r13
     c0a:	2e 1d       	adc	r18, r14
     c0c:	3f 1d       	adc	r19, r15
     c0e:	0c 83       	std	Y+4, r16	; 0x04
     c10:	1d 83       	std	Y+5, r17	; 0x05
     c12:	2e 83       	std	Y+6, r18	; 0x06
     c14:	3f 83       	std	Y+7, r19	; 0x07
     c16:	83 e0       	ldi	r24, 0x03	; 3
     c18:	88 83       	st	Y, r24
     c1a:	0c 81       	ldd	r16, Y+4	; 0x04
     c1c:	1d 81       	ldd	r17, Y+5	; 0x05
     c1e:	2e 81       	ldd	r18, Y+6	; 0x06
     c20:	3f 81       	ldd	r19, Y+7	; 0x07
     c22:	37 ff       	sbrs	r19, 7
     c24:	1a c0       	rjmp	.+52     	; 0xc5a <_fpadd_parts+0x296>
     c26:	d9 01       	movw	r26, r18
     c28:	c8 01       	movw	r24, r16
     c2a:	81 70       	andi	r24, 0x01	; 1
     c2c:	99 27       	eor	r25, r25
     c2e:	aa 27       	eor	r26, r26
     c30:	bb 27       	eor	r27, r27
     c32:	36 95       	lsr	r19
     c34:	27 95       	ror	r18
     c36:	17 95       	ror	r17
     c38:	07 95       	ror	r16
     c3a:	80 2b       	or	r24, r16
     c3c:	91 2b       	or	r25, r17
     c3e:	a2 2b       	or	r26, r18
     c40:	b3 2b       	or	r27, r19
     c42:	8c 83       	std	Y+4, r24	; 0x04
     c44:	9d 83       	std	Y+5, r25	; 0x05
     c46:	ae 83       	std	Y+6, r26	; 0x06
     c48:	bf 83       	std	Y+7, r27	; 0x07
     c4a:	8a 81       	ldd	r24, Y+2	; 0x02
     c4c:	9b 81       	ldd	r25, Y+3	; 0x03
     c4e:	01 96       	adiw	r24, 0x01	; 1
     c50:	9b 83       	std	Y+3, r25	; 0x03
     c52:	8a 83       	std	Y+2, r24	; 0x02
     c54:	02 c0       	rjmp	.+4      	; 0xc5a <_fpadd_parts+0x296>
     c56:	3c 01       	movw	r6, r24
     c58:	01 c0       	rjmp	.+2      	; 0xc5c <_fpadd_parts+0x298>
     c5a:	3e 01       	movw	r6, r28
     c5c:	c3 01       	movw	r24, r6
     c5e:	cd b7       	in	r28, 0x3d	; 61
     c60:	de b7       	in	r29, 0x3e	; 62
     c62:	ee e0       	ldi	r30, 0x0E	; 14
     c64:	0c 94 02 0a 	jmp	0x1404	; 0x1404 <__epilogue_restores__+0x8>

00000c68 <__addsf3>:
     c68:	a0 e2       	ldi	r26, 0x20	; 32
     c6a:	b0 e0       	ldi	r27, 0x00	; 0
     c6c:	ea e3       	ldi	r30, 0x3A	; 58
     c6e:	f6 e0       	ldi	r31, 0x06	; 6
     c70:	0c 94 f2 09 	jmp	0x13e4	; 0x13e4 <__prologue_saves__+0x20>
     c74:	6d 8f       	std	Y+29, r22	; 0x1d
     c76:	7e 8f       	std	Y+30, r23	; 0x1e
     c78:	8f 8f       	std	Y+31, r24	; 0x1f
     c7a:	98 a3       	std	Y+32, r25	; 0x20
     c7c:	29 8f       	std	Y+25, r18	; 0x19
     c7e:	3a 8f       	std	Y+26, r19	; 0x1a
     c80:	4b 8f       	std	Y+27, r20	; 0x1b
     c82:	5c 8f       	std	Y+28, r21	; 0x1c
     c84:	be 01       	movw	r22, r28
     c86:	6f 5e       	subi	r22, 0xEF	; 239
     c88:	7f 4f       	sbci	r23, 0xFF	; 255
     c8a:	ce 01       	movw	r24, r28
     c8c:	4d 96       	adiw	r24, 0x1d	; 29
     c8e:	0e 94 12 09 	call	0x1224	; 0x1224 <__unpack_f>
     c92:	be 01       	movw	r22, r28
     c94:	67 5f       	subi	r22, 0xF7	; 247
     c96:	7f 4f       	sbci	r23, 0xFF	; 255
     c98:	ce 01       	movw	r24, r28
     c9a:	49 96       	adiw	r24, 0x19	; 25
     c9c:	0e 94 12 09 	call	0x1224	; 0x1224 <__unpack_f>
     ca0:	ae 01       	movw	r20, r28
     ca2:	4f 5f       	subi	r20, 0xFF	; 255
     ca4:	5f 4f       	sbci	r21, 0xFF	; 255
     ca6:	be 01       	movw	r22, r28
     ca8:	67 5f       	subi	r22, 0xF7	; 247
     caa:	7f 4f       	sbci	r23, 0xFF	; 255
     cac:	ce 01       	movw	r24, r28
     cae:	41 96       	adiw	r24, 0x11	; 17
     cb0:	0e 94 e2 04 	call	0x9c4	; 0x9c4 <_fpadd_parts>
     cb4:	0e 94 51 08 	call	0x10a2	; 0x10a2 <__pack_f>
     cb8:	a0 96       	adiw	r28, 0x20	; 32
     cba:	e2 e0       	ldi	r30, 0x02	; 2
     cbc:	0c 94 0e 0a 	jmp	0x141c	; 0x141c <__epilogue_restores__+0x20>

00000cc0 <__subsf3>:
     cc0:	a0 e2       	ldi	r26, 0x20	; 32
     cc2:	b0 e0       	ldi	r27, 0x00	; 0
     cc4:	e6 e6       	ldi	r30, 0x66	; 102
     cc6:	f6 e0       	ldi	r31, 0x06	; 6
     cc8:	0c 94 f2 09 	jmp	0x13e4	; 0x13e4 <__prologue_saves__+0x20>
     ccc:	6d 8f       	std	Y+29, r22	; 0x1d
     cce:	7e 8f       	std	Y+30, r23	; 0x1e
     cd0:	8f 8f       	std	Y+31, r24	; 0x1f
     cd2:	98 a3       	std	Y+32, r25	; 0x20
     cd4:	29 8f       	std	Y+25, r18	; 0x19
     cd6:	3a 8f       	std	Y+26, r19	; 0x1a
     cd8:	4b 8f       	std	Y+27, r20	; 0x1b
     cda:	5c 8f       	std	Y+28, r21	; 0x1c
     cdc:	be 01       	movw	r22, r28
     cde:	6f 5e       	subi	r22, 0xEF	; 239
     ce0:	7f 4f       	sbci	r23, 0xFF	; 255
     ce2:	ce 01       	movw	r24, r28
     ce4:	4d 96       	adiw	r24, 0x1d	; 29
     ce6:	0e 94 12 09 	call	0x1224	; 0x1224 <__unpack_f>
     cea:	be 01       	movw	r22, r28
     cec:	67 5f       	subi	r22, 0xF7	; 247
     cee:	7f 4f       	sbci	r23, 0xFF	; 255
     cf0:	ce 01       	movw	r24, r28
     cf2:	49 96       	adiw	r24, 0x19	; 25
     cf4:	0e 94 12 09 	call	0x1224	; 0x1224 <__unpack_f>
     cf8:	8a 85       	ldd	r24, Y+10	; 0x0a
     cfa:	91 e0       	ldi	r25, 0x01	; 1
     cfc:	89 27       	eor	r24, r25
     cfe:	8a 87       	std	Y+10, r24	; 0x0a
     d00:	ae 01       	movw	r20, r28
     d02:	4f 5f       	subi	r20, 0xFF	; 255
     d04:	5f 4f       	sbci	r21, 0xFF	; 255
     d06:	be 01       	movw	r22, r28
     d08:	67 5f       	subi	r22, 0xF7	; 247
     d0a:	7f 4f       	sbci	r23, 0xFF	; 255
     d0c:	ce 01       	movw	r24, r28
     d0e:	41 96       	adiw	r24, 0x11	; 17
     d10:	0e 94 e2 04 	call	0x9c4	; 0x9c4 <_fpadd_parts>
     d14:	0e 94 51 08 	call	0x10a2	; 0x10a2 <__pack_f>
     d18:	a0 96       	adiw	r28, 0x20	; 32
     d1a:	e2 e0       	ldi	r30, 0x02	; 2
     d1c:	0c 94 0e 0a 	jmp	0x141c	; 0x141c <__epilogue_restores__+0x20>

00000d20 <__mulsf3>:
     d20:	a0 e2       	ldi	r26, 0x20	; 32
     d22:	b0 e0       	ldi	r27, 0x00	; 0
     d24:	e6 e9       	ldi	r30, 0x96	; 150
     d26:	f6 e0       	ldi	r31, 0x06	; 6
     d28:	0c 94 e4 09 	jmp	0x13c8	; 0x13c8 <__prologue_saves__+0x4>
     d2c:	6d 8f       	std	Y+29, r22	; 0x1d
     d2e:	7e 8f       	std	Y+30, r23	; 0x1e
     d30:	8f 8f       	std	Y+31, r24	; 0x1f
     d32:	98 a3       	std	Y+32, r25	; 0x20
     d34:	29 8f       	std	Y+25, r18	; 0x19
     d36:	3a 8f       	std	Y+26, r19	; 0x1a
     d38:	4b 8f       	std	Y+27, r20	; 0x1b
     d3a:	5c 8f       	std	Y+28, r21	; 0x1c
     d3c:	be 01       	movw	r22, r28
     d3e:	6f 5e       	subi	r22, 0xEF	; 239
     d40:	7f 4f       	sbci	r23, 0xFF	; 255
     d42:	ce 01       	movw	r24, r28
     d44:	4d 96       	adiw	r24, 0x1d	; 29
     d46:	0e 94 12 09 	call	0x1224	; 0x1224 <__unpack_f>
     d4a:	be 01       	movw	r22, r28
     d4c:	67 5f       	subi	r22, 0xF7	; 247
     d4e:	7f 4f       	sbci	r23, 0xFF	; 255
     d50:	ce 01       	movw	r24, r28
     d52:	49 96       	adiw	r24, 0x19	; 25
     d54:	0e 94 12 09 	call	0x1224	; 0x1224 <__unpack_f>
     d58:	99 89       	ldd	r25, Y+17	; 0x11
     d5a:	92 30       	cpi	r25, 0x02	; 2
     d5c:	08 f4       	brcc	.+2      	; 0xd60 <__mulsf3+0x40>
     d5e:	12 c0       	rjmp	.+36     	; 0xd84 <__mulsf3+0x64>
     d60:	89 85       	ldd	r24, Y+9	; 0x09
     d62:	82 30       	cpi	r24, 0x02	; 2
     d64:	08 f4       	brcc	.+2      	; 0xd68 <__mulsf3+0x48>
     d66:	1a c0       	rjmp	.+52     	; 0xd9c <__mulsf3+0x7c>
     d68:	94 30       	cpi	r25, 0x04	; 4
     d6a:	21 f4       	brne	.+8      	; 0xd74 <__mulsf3+0x54>
     d6c:	82 30       	cpi	r24, 0x02	; 2
     d6e:	09 f4       	brne	.+2      	; 0xd72 <__mulsf3+0x52>
     d70:	b4 c0       	rjmp	.+360    	; 0xeda <__mulsf3+0x1ba>
     d72:	08 c0       	rjmp	.+16     	; 0xd84 <__mulsf3+0x64>
     d74:	84 30       	cpi	r24, 0x04	; 4
     d76:	21 f4       	brne	.+8      	; 0xd80 <__mulsf3+0x60>
     d78:	92 30       	cpi	r25, 0x02	; 2
     d7a:	09 f4       	brne	.+2      	; 0xd7e <__mulsf3+0x5e>
     d7c:	ae c0       	rjmp	.+348    	; 0xeda <__mulsf3+0x1ba>
     d7e:	0e c0       	rjmp	.+28     	; 0xd9c <__mulsf3+0x7c>
     d80:	92 30       	cpi	r25, 0x02	; 2
     d82:	51 f4       	brne	.+20     	; 0xd98 <__mulsf3+0x78>
     d84:	81 e0       	ldi	r24, 0x01	; 1
     d86:	2a 89       	ldd	r18, Y+18	; 0x12
     d88:	9a 85       	ldd	r25, Y+10	; 0x0a
     d8a:	29 13       	cpse	r18, r25
     d8c:	01 c0       	rjmp	.+2      	; 0xd90 <__mulsf3+0x70>
     d8e:	80 e0       	ldi	r24, 0x00	; 0
     d90:	8a 8b       	std	Y+18, r24	; 0x12
     d92:	ce 01       	movw	r24, r28
     d94:	41 96       	adiw	r24, 0x11	; 17
     d96:	a3 c0       	rjmp	.+326    	; 0xede <__mulsf3+0x1be>
     d98:	82 30       	cpi	r24, 0x02	; 2
     d9a:	51 f4       	brne	.+20     	; 0xdb0 <__mulsf3+0x90>
     d9c:	81 e0       	ldi	r24, 0x01	; 1
     d9e:	2a 89       	ldd	r18, Y+18	; 0x12
     da0:	9a 85       	ldd	r25, Y+10	; 0x0a
     da2:	29 13       	cpse	r18, r25
     da4:	01 c0       	rjmp	.+2      	; 0xda8 <__mulsf3+0x88>
     da6:	80 e0       	ldi	r24, 0x00	; 0
     da8:	8a 87       	std	Y+10, r24	; 0x0a
     daa:	ce 01       	movw	r24, r28
     dac:	09 96       	adiw	r24, 0x09	; 9
     dae:	97 c0       	rjmp	.+302    	; 0xede <__mulsf3+0x1be>
     db0:	8d 88       	ldd	r8, Y+21	; 0x15
     db2:	9e 88       	ldd	r9, Y+22	; 0x16
     db4:	af 88       	ldd	r10, Y+23	; 0x17
     db6:	b8 8c       	ldd	r11, Y+24	; 0x18
     db8:	0d 85       	ldd	r16, Y+13	; 0x0d
     dba:	1e 85       	ldd	r17, Y+14	; 0x0e
     dbc:	2f 85       	ldd	r18, Y+15	; 0x0f
     dbe:	38 89       	ldd	r19, Y+16	; 0x10
     dc0:	e0 e2       	ldi	r30, 0x20	; 32
     dc2:	f0 e0       	ldi	r31, 0x00	; 0
     dc4:	80 e0       	ldi	r24, 0x00	; 0
     dc6:	90 e0       	ldi	r25, 0x00	; 0
     dc8:	dc 01       	movw	r26, r24
     dca:	c1 2c       	mov	r12, r1
     dcc:	d1 2c       	mov	r13, r1
     dce:	76 01       	movw	r14, r12
     dd0:	40 e0       	ldi	r20, 0x00	; 0
     dd2:	50 e0       	ldi	r21, 0x00	; 0
     dd4:	ba 01       	movw	r22, r20
     dd6:	80 fe       	sbrs	r8, 0
     dd8:	18 c0       	rjmp	.+48     	; 0xe0a <__mulsf3+0xea>
     dda:	40 0f       	add	r20, r16
     ddc:	51 1f       	adc	r21, r17
     dde:	62 1f       	adc	r22, r18
     de0:	73 1f       	adc	r23, r19
     de2:	8c 0d       	add	r24, r12
     de4:	9d 1d       	adc	r25, r13
     de6:	ae 1d       	adc	r26, r14
     de8:	bf 1d       	adc	r27, r15
     dea:	41 2c       	mov	r4, r1
     dec:	51 2c       	mov	r5, r1
     dee:	32 01       	movw	r6, r4
     df0:	43 94       	inc	r4
     df2:	40 17       	cp	r20, r16
     df4:	51 07       	cpc	r21, r17
     df6:	62 07       	cpc	r22, r18
     df8:	73 07       	cpc	r23, r19
     dfa:	18 f0       	brcs	.+6      	; 0xe02 <__mulsf3+0xe2>
     dfc:	41 2c       	mov	r4, r1
     dfe:	51 2c       	mov	r5, r1
     e00:	32 01       	movw	r6, r4
     e02:	84 0d       	add	r24, r4
     e04:	95 1d       	adc	r25, r5
     e06:	a6 1d       	adc	r26, r6
     e08:	b7 1d       	adc	r27, r7
     e0a:	cc 0c       	add	r12, r12
     e0c:	dd 1c       	adc	r13, r13
     e0e:	ee 1c       	adc	r14, r14
     e10:	ff 1c       	adc	r15, r15
     e12:	37 ff       	sbrs	r19, 7
     e14:	02 c0       	rjmp	.+4      	; 0xe1a <__mulsf3+0xfa>
     e16:	68 94       	set
     e18:	c0 f8       	bld	r12, 0
     e1a:	00 0f       	add	r16, r16
     e1c:	11 1f       	adc	r17, r17
     e1e:	22 1f       	adc	r18, r18
     e20:	33 1f       	adc	r19, r19
     e22:	b6 94       	lsr	r11
     e24:	a7 94       	ror	r10
     e26:	97 94       	ror	r9
     e28:	87 94       	ror	r8
     e2a:	31 97       	sbiw	r30, 0x01	; 1
     e2c:	a1 f6       	brne	.-88     	; 0xdd6 <__mulsf3+0xb6>
     e2e:	2b 89       	ldd	r18, Y+19	; 0x13
     e30:	3c 89       	ldd	r19, Y+20	; 0x14
     e32:	eb 85       	ldd	r30, Y+11	; 0x0b
     e34:	fc 85       	ldd	r31, Y+12	; 0x0c
     e36:	2e 0f       	add	r18, r30
     e38:	3f 1f       	adc	r19, r31
     e3a:	2e 5f       	subi	r18, 0xFE	; 254
     e3c:	3f 4f       	sbci	r19, 0xFF	; 255
     e3e:	3c 83       	std	Y+4, r19	; 0x04
     e40:	2b 83       	std	Y+3, r18	; 0x03
     e42:	21 e0       	ldi	r18, 0x01	; 1
     e44:	ea 89       	ldd	r30, Y+18	; 0x12
     e46:	3a 85       	ldd	r19, Y+10	; 0x0a
     e48:	e3 13       	cpse	r30, r19
     e4a:	01 c0       	rjmp	.+2      	; 0xe4e <__mulsf3+0x12e>
     e4c:	20 e0       	ldi	r18, 0x00	; 0
     e4e:	2a 83       	std	Y+2, r18	; 0x02
     e50:	eb 81       	ldd	r30, Y+3	; 0x03
     e52:	fc 81       	ldd	r31, Y+4	; 0x04
     e54:	0c c0       	rjmp	.+24     	; 0xe6e <__mulsf3+0x14e>
     e56:	80 ff       	sbrs	r24, 0
     e58:	05 c0       	rjmp	.+10     	; 0xe64 <__mulsf3+0x144>
     e5a:	76 95       	lsr	r23
     e5c:	67 95       	ror	r22
     e5e:	57 95       	ror	r21
     e60:	47 95       	ror	r20
     e62:	70 68       	ori	r23, 0x80	; 128
     e64:	b6 95       	lsr	r27
     e66:	a7 95       	ror	r26
     e68:	97 95       	ror	r25
     e6a:	87 95       	ror	r24
     e6c:	31 96       	adiw	r30, 0x01	; 1
     e6e:	b7 fd       	sbrc	r27, 7
     e70:	f2 cf       	rjmp	.-28     	; 0xe56 <__mulsf3+0x136>
     e72:	9f 01       	movw	r18, r30
     e74:	0c c0       	rjmp	.+24     	; 0xe8e <__mulsf3+0x16e>
     e76:	88 0f       	add	r24, r24
     e78:	99 1f       	adc	r25, r25
     e7a:	aa 1f       	adc	r26, r26
     e7c:	bb 1f       	adc	r27, r27
     e7e:	77 fd       	sbrc	r23, 7
     e80:	81 60       	ori	r24, 0x01	; 1
     e82:	44 0f       	add	r20, r20
     e84:	55 1f       	adc	r21, r21
     e86:	66 1f       	adc	r22, r22
     e88:	77 1f       	adc	r23, r23
     e8a:	21 50       	subi	r18, 0x01	; 1
     e8c:	31 09       	sbc	r19, r1
     e8e:	00 97       	sbiw	r24, 0x00	; 0
     e90:	a1 05       	cpc	r26, r1
     e92:	e0 e4       	ldi	r30, 0x40	; 64
     e94:	be 07       	cpc	r27, r30
     e96:	78 f3       	brcs	.-34     	; 0xe76 <__mulsf3+0x156>
     e98:	2b 83       	std	Y+3, r18	; 0x03
     e9a:	3c 83       	std	Y+4, r19	; 0x04
     e9c:	8c 01       	movw	r16, r24
     e9e:	9d 01       	movw	r18, r26
     ea0:	0f 77       	andi	r16, 0x7F	; 127
     ea2:	11 27       	eor	r17, r17
     ea4:	22 27       	eor	r18, r18
     ea6:	33 27       	eor	r19, r19
     ea8:	00 34       	cpi	r16, 0x40	; 64
     eaa:	11 05       	cpc	r17, r1
     eac:	21 05       	cpc	r18, r1
     eae:	31 05       	cpc	r19, r1
     eb0:	59 f4       	brne	.+22     	; 0xec8 <__mulsf3+0x1a8>
     eb2:	87 fd       	sbrc	r24, 7
     eb4:	09 c0       	rjmp	.+18     	; 0xec8 <__mulsf3+0x1a8>
     eb6:	45 2b       	or	r20, r21
     eb8:	46 2b       	or	r20, r22
     eba:	47 2b       	or	r20, r23
     ebc:	29 f0       	breq	.+10     	; 0xec8 <__mulsf3+0x1a8>
     ebe:	80 5c       	subi	r24, 0xC0	; 192
     ec0:	9f 4f       	sbci	r25, 0xFF	; 255
     ec2:	af 4f       	sbci	r26, 0xFF	; 255
     ec4:	bf 4f       	sbci	r27, 0xFF	; 255
     ec6:	80 78       	andi	r24, 0x80	; 128
     ec8:	8d 83       	std	Y+5, r24	; 0x05
     eca:	9e 83       	std	Y+6, r25	; 0x06
     ecc:	af 83       	std	Y+7, r26	; 0x07
     ece:	b8 87       	std	Y+8, r27	; 0x08
     ed0:	83 e0       	ldi	r24, 0x03	; 3
     ed2:	89 83       	std	Y+1, r24	; 0x01
     ed4:	ce 01       	movw	r24, r28
     ed6:	01 96       	adiw	r24, 0x01	; 1
     ed8:	02 c0       	rjmp	.+4      	; 0xede <__mulsf3+0x1be>
     eda:	81 e3       	ldi	r24, 0x31	; 49
     edc:	91 e0       	ldi	r25, 0x01	; 1
     ede:	0e 94 51 08 	call	0x10a2	; 0x10a2 <__pack_f>
     ee2:	a0 96       	adiw	r28, 0x20	; 32
     ee4:	e0 e1       	ldi	r30, 0x10	; 16
     ee6:	0c 94 00 0a 	jmp	0x1400	; 0x1400 <__epilogue_restores__+0x4>

00000eea <__gtsf2>:
     eea:	a8 e1       	ldi	r26, 0x18	; 24
     eec:	b0 e0       	ldi	r27, 0x00	; 0
     eee:	eb e7       	ldi	r30, 0x7B	; 123
     ef0:	f7 e0       	ldi	r31, 0x07	; 7
     ef2:	0c 94 f2 09 	jmp	0x13e4	; 0x13e4 <__prologue_saves__+0x20>
     ef6:	6d 8b       	std	Y+21, r22	; 0x15
     ef8:	7e 8b       	std	Y+22, r23	; 0x16
     efa:	8f 8b       	std	Y+23, r24	; 0x17
     efc:	98 8f       	std	Y+24, r25	; 0x18
     efe:	29 8b       	std	Y+17, r18	; 0x11
     f00:	3a 8b       	std	Y+18, r19	; 0x12
     f02:	4b 8b       	std	Y+19, r20	; 0x13
     f04:	5c 8b       	std	Y+20, r21	; 0x14
     f06:	be 01       	movw	r22, r28
     f08:	67 5f       	subi	r22, 0xF7	; 247
     f0a:	7f 4f       	sbci	r23, 0xFF	; 255
     f0c:	ce 01       	movw	r24, r28
     f0e:	45 96       	adiw	r24, 0x15	; 21
     f10:	0e 94 12 09 	call	0x1224	; 0x1224 <__unpack_f>
     f14:	be 01       	movw	r22, r28
     f16:	6f 5f       	subi	r22, 0xFF	; 255
     f18:	7f 4f       	sbci	r23, 0xFF	; 255
     f1a:	ce 01       	movw	r24, r28
     f1c:	41 96       	adiw	r24, 0x11	; 17
     f1e:	0e 94 12 09 	call	0x1224	; 0x1224 <__unpack_f>
     f22:	89 85       	ldd	r24, Y+9	; 0x09
     f24:	82 30       	cpi	r24, 0x02	; 2
     f26:	58 f0       	brcs	.+22     	; 0xf3e <__gtsf2+0x54>
     f28:	89 81       	ldd	r24, Y+1	; 0x01
     f2a:	82 30       	cpi	r24, 0x02	; 2
     f2c:	40 f0       	brcs	.+16     	; 0xf3e <__gtsf2+0x54>
     f2e:	be 01       	movw	r22, r28
     f30:	6f 5f       	subi	r22, 0xFF	; 255
     f32:	7f 4f       	sbci	r23, 0xFF	; 255
     f34:	ce 01       	movw	r24, r28
     f36:	09 96       	adiw	r24, 0x09	; 9
     f38:	0e 94 81 09 	call	0x1302	; 0x1302 <__fpcmp_parts_f>
     f3c:	01 c0       	rjmp	.+2      	; 0xf40 <__gtsf2+0x56>
     f3e:	8f ef       	ldi	r24, 0xFF	; 255
     f40:	68 96       	adiw	r28, 0x18	; 24
     f42:	e2 e0       	ldi	r30, 0x02	; 2
     f44:	0c 94 0e 0a 	jmp	0x141c	; 0x141c <__epilogue_restores__+0x20>

00000f48 <__gesf2>:
     f48:	a8 e1       	ldi	r26, 0x18	; 24
     f4a:	b0 e0       	ldi	r27, 0x00	; 0
     f4c:	ea ea       	ldi	r30, 0xAA	; 170
     f4e:	f7 e0       	ldi	r31, 0x07	; 7
     f50:	0c 94 f2 09 	jmp	0x13e4	; 0x13e4 <__prologue_saves__+0x20>
     f54:	6d 8b       	std	Y+21, r22	; 0x15
     f56:	7e 8b       	std	Y+22, r23	; 0x16
     f58:	8f 8b       	std	Y+23, r24	; 0x17
     f5a:	98 8f       	std	Y+24, r25	; 0x18
     f5c:	29 8b       	std	Y+17, r18	; 0x11
     f5e:	3a 8b       	std	Y+18, r19	; 0x12
     f60:	4b 8b       	std	Y+19, r20	; 0x13
     f62:	5c 8b       	std	Y+20, r21	; 0x14
     f64:	be 01       	movw	r22, r28
     f66:	67 5f       	subi	r22, 0xF7	; 247
     f68:	7f 4f       	sbci	r23, 0xFF	; 255
     f6a:	ce 01       	movw	r24, r28
     f6c:	45 96       	adiw	r24, 0x15	; 21
     f6e:	0e 94 12 09 	call	0x1224	; 0x1224 <__unpack_f>
     f72:	be 01       	movw	r22, r28
     f74:	6f 5f       	subi	r22, 0xFF	; 255
     f76:	7f 4f       	sbci	r23, 0xFF	; 255
     f78:	ce 01       	movw	r24, r28
     f7a:	41 96       	adiw	r24, 0x11	; 17
     f7c:	0e 94 12 09 	call	0x1224	; 0x1224 <__unpack_f>
     f80:	89 85       	ldd	r24, Y+9	; 0x09
     f82:	82 30       	cpi	r24, 0x02	; 2
     f84:	58 f0       	brcs	.+22     	; 0xf9c <__gesf2+0x54>
     f86:	89 81       	ldd	r24, Y+1	; 0x01
     f88:	82 30       	cpi	r24, 0x02	; 2
     f8a:	40 f0       	brcs	.+16     	; 0xf9c <__gesf2+0x54>
     f8c:	be 01       	movw	r22, r28
     f8e:	6f 5f       	subi	r22, 0xFF	; 255
     f90:	7f 4f       	sbci	r23, 0xFF	; 255
     f92:	ce 01       	movw	r24, r28
     f94:	09 96       	adiw	r24, 0x09	; 9
     f96:	0e 94 81 09 	call	0x1302	; 0x1302 <__fpcmp_parts_f>
     f9a:	01 c0       	rjmp	.+2      	; 0xf9e <__gesf2+0x56>
     f9c:	8f ef       	ldi	r24, 0xFF	; 255
     f9e:	68 96       	adiw	r28, 0x18	; 24
     fa0:	e2 e0       	ldi	r30, 0x02	; 2
     fa2:	0c 94 0e 0a 	jmp	0x141c	; 0x141c <__epilogue_restores__+0x20>

00000fa6 <__ltsf2>:
     fa6:	a8 e1       	ldi	r26, 0x18	; 24
     fa8:	b0 e0       	ldi	r27, 0x00	; 0
     faa:	e9 ed       	ldi	r30, 0xD9	; 217
     fac:	f7 e0       	ldi	r31, 0x07	; 7
     fae:	0c 94 f2 09 	jmp	0x13e4	; 0x13e4 <__prologue_saves__+0x20>
     fb2:	6d 8b       	std	Y+21, r22	; 0x15
     fb4:	7e 8b       	std	Y+22, r23	; 0x16
     fb6:	8f 8b       	std	Y+23, r24	; 0x17
     fb8:	98 8f       	std	Y+24, r25	; 0x18
     fba:	29 8b       	std	Y+17, r18	; 0x11
     fbc:	3a 8b       	std	Y+18, r19	; 0x12
     fbe:	4b 8b       	std	Y+19, r20	; 0x13
     fc0:	5c 8b       	std	Y+20, r21	; 0x14
     fc2:	be 01       	movw	r22, r28
     fc4:	67 5f       	subi	r22, 0xF7	; 247
     fc6:	7f 4f       	sbci	r23, 0xFF	; 255
     fc8:	ce 01       	movw	r24, r28
     fca:	45 96       	adiw	r24, 0x15	; 21
     fcc:	0e 94 12 09 	call	0x1224	; 0x1224 <__unpack_f>
     fd0:	be 01       	movw	r22, r28
     fd2:	6f 5f       	subi	r22, 0xFF	; 255
     fd4:	7f 4f       	sbci	r23, 0xFF	; 255
     fd6:	ce 01       	movw	r24, r28
     fd8:	41 96       	adiw	r24, 0x11	; 17
     fda:	0e 94 12 09 	call	0x1224	; 0x1224 <__unpack_f>
     fde:	89 85       	ldd	r24, Y+9	; 0x09
     fe0:	82 30       	cpi	r24, 0x02	; 2
     fe2:	58 f0       	brcs	.+22     	; 0xffa <__ltsf2+0x54>
     fe4:	89 81       	ldd	r24, Y+1	; 0x01
     fe6:	82 30       	cpi	r24, 0x02	; 2
     fe8:	40 f0       	brcs	.+16     	; 0xffa <__ltsf2+0x54>
     fea:	be 01       	movw	r22, r28
     fec:	6f 5f       	subi	r22, 0xFF	; 255
     fee:	7f 4f       	sbci	r23, 0xFF	; 255
     ff0:	ce 01       	movw	r24, r28
     ff2:	09 96       	adiw	r24, 0x09	; 9
     ff4:	0e 94 81 09 	call	0x1302	; 0x1302 <__fpcmp_parts_f>
     ff8:	01 c0       	rjmp	.+2      	; 0xffc <__ltsf2+0x56>
     ffa:	81 e0       	ldi	r24, 0x01	; 1
     ffc:	68 96       	adiw	r28, 0x18	; 24
     ffe:	e2 e0       	ldi	r30, 0x02	; 2
    1000:	0c 94 0e 0a 	jmp	0x141c	; 0x141c <__epilogue_restores__+0x20>

00001004 <__fixsfsi>:
    1004:	ac e0       	ldi	r26, 0x0C	; 12
    1006:	b0 e0       	ldi	r27, 0x00	; 0
    1008:	e8 e0       	ldi	r30, 0x08	; 8
    100a:	f8 e0       	ldi	r31, 0x08	; 8
    100c:	0c 94 f0 09 	jmp	0x13e0	; 0x13e0 <__prologue_saves__+0x1c>
    1010:	69 87       	std	Y+9, r22	; 0x09
    1012:	7a 87       	std	Y+10, r23	; 0x0a
    1014:	8b 87       	std	Y+11, r24	; 0x0b
    1016:	9c 87       	std	Y+12, r25	; 0x0c
    1018:	be 01       	movw	r22, r28
    101a:	6f 5f       	subi	r22, 0xFF	; 255
    101c:	7f 4f       	sbci	r23, 0xFF	; 255
    101e:	ce 01       	movw	r24, r28
    1020:	09 96       	adiw	r24, 0x09	; 9
    1022:	0e 94 12 09 	call	0x1224	; 0x1224 <__unpack_f>
    1026:	89 81       	ldd	r24, Y+1	; 0x01
    1028:	82 30       	cpi	r24, 0x02	; 2
    102a:	91 f1       	breq	.+100    	; 0x1090 <__fixsfsi+0x8c>
    102c:	82 30       	cpi	r24, 0x02	; 2
    102e:	80 f1       	brcs	.+96     	; 0x1090 <__fixsfsi+0x8c>
    1030:	84 30       	cpi	r24, 0x04	; 4
    1032:	41 f4       	brne	.+16     	; 0x1044 <__fixsfsi+0x40>
    1034:	8a 81       	ldd	r24, Y+2	; 0x02
    1036:	88 23       	and	r24, r24
    1038:	31 f1       	breq	.+76     	; 0x1086 <__fixsfsi+0x82>
    103a:	00 e0       	ldi	r16, 0x00	; 0
    103c:	10 e0       	ldi	r17, 0x00	; 0
    103e:	20 e0       	ldi	r18, 0x00	; 0
    1040:	30 e8       	ldi	r19, 0x80	; 128
    1042:	29 c0       	rjmp	.+82     	; 0x1096 <__fixsfsi+0x92>
    1044:	2b 81       	ldd	r18, Y+3	; 0x03
    1046:	3c 81       	ldd	r19, Y+4	; 0x04
    1048:	37 fd       	sbrc	r19, 7
    104a:	22 c0       	rjmp	.+68     	; 0x1090 <__fixsfsi+0x8c>
    104c:	2f 31       	cpi	r18, 0x1F	; 31
    104e:	31 05       	cpc	r19, r1
    1050:	8c f7       	brge	.-30     	; 0x1034 <__fixsfsi+0x30>
    1052:	8e e1       	ldi	r24, 0x1E	; 30
    1054:	90 e0       	ldi	r25, 0x00	; 0
    1056:	82 1b       	sub	r24, r18
    1058:	93 0b       	sbc	r25, r19
    105a:	0d 81       	ldd	r16, Y+5	; 0x05
    105c:	1e 81       	ldd	r17, Y+6	; 0x06
    105e:	2f 81       	ldd	r18, Y+7	; 0x07
    1060:	38 85       	ldd	r19, Y+8	; 0x08
    1062:	04 c0       	rjmp	.+8      	; 0x106c <__fixsfsi+0x68>
    1064:	36 95       	lsr	r19
    1066:	27 95       	ror	r18
    1068:	17 95       	ror	r17
    106a:	07 95       	ror	r16
    106c:	8a 95       	dec	r24
    106e:	d2 f7       	brpl	.-12     	; 0x1064 <__fixsfsi+0x60>
    1070:	8a 81       	ldd	r24, Y+2	; 0x02
    1072:	88 23       	and	r24, r24
    1074:	81 f0       	breq	.+32     	; 0x1096 <__fixsfsi+0x92>
    1076:	30 95       	com	r19
    1078:	20 95       	com	r18
    107a:	10 95       	com	r17
    107c:	01 95       	neg	r16
    107e:	1f 4f       	sbci	r17, 0xFF	; 255
    1080:	2f 4f       	sbci	r18, 0xFF	; 255
    1082:	3f 4f       	sbci	r19, 0xFF	; 255
    1084:	08 c0       	rjmp	.+16     	; 0x1096 <__fixsfsi+0x92>
    1086:	0f ef       	ldi	r16, 0xFF	; 255
    1088:	1f ef       	ldi	r17, 0xFF	; 255
    108a:	2f ef       	ldi	r18, 0xFF	; 255
    108c:	3f e7       	ldi	r19, 0x7F	; 127
    108e:	03 c0       	rjmp	.+6      	; 0x1096 <__fixsfsi+0x92>
    1090:	00 e0       	ldi	r16, 0x00	; 0
    1092:	10 e0       	ldi	r17, 0x00	; 0
    1094:	98 01       	movw	r18, r16
    1096:	b8 01       	movw	r22, r16
    1098:	c9 01       	movw	r24, r18
    109a:	2c 96       	adiw	r28, 0x0c	; 12
    109c:	e4 e0       	ldi	r30, 0x04	; 4
    109e:	0c 94 0c 0a 	jmp	0x1418	; 0x1418 <__epilogue_restores__+0x1c>

000010a2 <__pack_f>:
    10a2:	0f 93       	push	r16
    10a4:	1f 93       	push	r17
    10a6:	cf 93       	push	r28
    10a8:	fc 01       	movw	r30, r24
    10aa:	44 81       	ldd	r20, Z+4	; 0x04
    10ac:	55 81       	ldd	r21, Z+5	; 0x05
    10ae:	66 81       	ldd	r22, Z+6	; 0x06
    10b0:	77 81       	ldd	r23, Z+7	; 0x07
    10b2:	c1 81       	ldd	r28, Z+1	; 0x01
    10b4:	80 81       	ld	r24, Z
    10b6:	82 30       	cpi	r24, 0x02	; 2
    10b8:	20 f4       	brcc	.+8      	; 0x10c2 <__pack_f+0x20>
    10ba:	60 61       	ori	r22, 0x10	; 16
    10bc:	8f ef       	ldi	r24, 0xFF	; 255
    10be:	90 e0       	ldi	r25, 0x00	; 0
    10c0:	a3 c0       	rjmp	.+326    	; 0x1208 <__stack+0x109>
    10c2:	84 30       	cpi	r24, 0x04	; 4
    10c4:	09 f4       	brne	.+2      	; 0x10c8 <__pack_f+0x26>
    10c6:	9b c0       	rjmp	.+310    	; 0x11fe <__stack+0xff>
    10c8:	82 30       	cpi	r24, 0x02	; 2
    10ca:	09 f4       	brne	.+2      	; 0x10ce <__pack_f+0x2c>
    10cc:	92 c0       	rjmp	.+292    	; 0x11f2 <__stack+0xf3>
    10ce:	41 15       	cp	r20, r1
    10d0:	51 05       	cpc	r21, r1
    10d2:	61 05       	cpc	r22, r1
    10d4:	71 05       	cpc	r23, r1
    10d6:	09 f4       	brne	.+2      	; 0x10da <__pack_f+0x38>
    10d8:	8f c0       	rjmp	.+286    	; 0x11f8 <__stack+0xf9>
    10da:	22 81       	ldd	r18, Z+2	; 0x02
    10dc:	33 81       	ldd	r19, Z+3	; 0x03
    10de:	22 38       	cpi	r18, 0x82	; 130
    10e0:	8f ef       	ldi	r24, 0xFF	; 255
    10e2:	38 07       	cpc	r19, r24
    10e4:	0c f0       	brlt	.+2      	; 0x10e8 <__pack_f+0x46>
    10e6:	57 c0       	rjmp	.+174    	; 0x1196 <__stack+0x97>
    10e8:	e2 e8       	ldi	r30, 0x82	; 130
    10ea:	ff ef       	ldi	r31, 0xFF	; 255
    10ec:	e2 1b       	sub	r30, r18
    10ee:	f3 0b       	sbc	r31, r19
    10f0:	ea 31       	cpi	r30, 0x1A	; 26
    10f2:	f1 05       	cpc	r31, r1
    10f4:	64 f5       	brge	.+88     	; 0x114e <__stack+0x4f>
    10f6:	8a 01       	movw	r16, r20
    10f8:	9b 01       	movw	r18, r22
    10fa:	0e 2e       	mov	r0, r30
    10fc:	04 c0       	rjmp	.+8      	; 0x1106 <__stack+0x7>
    10fe:	36 95       	lsr	r19
    1100:	27 95       	ror	r18
    1102:	17 95       	ror	r17
    1104:	07 95       	ror	r16
    1106:	0a 94       	dec	r0
    1108:	d2 f7       	brpl	.-12     	; 0x10fe <__pack_f+0x5c>
    110a:	81 e0       	ldi	r24, 0x01	; 1
    110c:	90 e0       	ldi	r25, 0x00	; 0
    110e:	a0 e0       	ldi	r26, 0x00	; 0
    1110:	b0 e0       	ldi	r27, 0x00	; 0
    1112:	04 c0       	rjmp	.+8      	; 0x111c <__stack+0x1d>
    1114:	88 0f       	add	r24, r24
    1116:	99 1f       	adc	r25, r25
    1118:	aa 1f       	adc	r26, r26
    111a:	bb 1f       	adc	r27, r27
    111c:	ea 95       	dec	r30
    111e:	d2 f7       	brpl	.-12     	; 0x1114 <__stack+0x15>
    1120:	01 97       	sbiw	r24, 0x01	; 1
    1122:	a1 09       	sbc	r26, r1
    1124:	b1 09       	sbc	r27, r1
    1126:	84 23       	and	r24, r20
    1128:	95 23       	and	r25, r21
    112a:	a6 23       	and	r26, r22
    112c:	b7 23       	and	r27, r23
    112e:	41 e0       	ldi	r20, 0x01	; 1
    1130:	50 e0       	ldi	r21, 0x00	; 0
    1132:	60 e0       	ldi	r22, 0x00	; 0
    1134:	70 e0       	ldi	r23, 0x00	; 0
    1136:	89 2b       	or	r24, r25
    1138:	8a 2b       	or	r24, r26
    113a:	8b 2b       	or	r24, r27
    113c:	19 f4       	brne	.+6      	; 0x1144 <__stack+0x45>
    113e:	40 e0       	ldi	r20, 0x00	; 0
    1140:	50 e0       	ldi	r21, 0x00	; 0
    1142:	ba 01       	movw	r22, r20
    1144:	40 2b       	or	r20, r16
    1146:	51 2b       	or	r21, r17
    1148:	62 2b       	or	r22, r18
    114a:	73 2b       	or	r23, r19
    114c:	03 c0       	rjmp	.+6      	; 0x1154 <__stack+0x55>
    114e:	40 e0       	ldi	r20, 0x00	; 0
    1150:	50 e0       	ldi	r21, 0x00	; 0
    1152:	ba 01       	movw	r22, r20
    1154:	db 01       	movw	r26, r22
    1156:	ca 01       	movw	r24, r20
    1158:	8f 77       	andi	r24, 0x7F	; 127
    115a:	99 27       	eor	r25, r25
    115c:	aa 27       	eor	r26, r26
    115e:	bb 27       	eor	r27, r27
    1160:	80 34       	cpi	r24, 0x40	; 64
    1162:	91 05       	cpc	r25, r1
    1164:	a1 05       	cpc	r26, r1
    1166:	b1 05       	cpc	r27, r1
    1168:	39 f4       	brne	.+14     	; 0x1178 <__stack+0x79>
    116a:	47 ff       	sbrs	r20, 7
    116c:	09 c0       	rjmp	.+18     	; 0x1180 <__stack+0x81>
    116e:	40 5c       	subi	r20, 0xC0	; 192
    1170:	5f 4f       	sbci	r21, 0xFF	; 255
    1172:	6f 4f       	sbci	r22, 0xFF	; 255
    1174:	7f 4f       	sbci	r23, 0xFF	; 255
    1176:	04 c0       	rjmp	.+8      	; 0x1180 <__stack+0x81>
    1178:	41 5c       	subi	r20, 0xC1	; 193
    117a:	5f 4f       	sbci	r21, 0xFF	; 255
    117c:	6f 4f       	sbci	r22, 0xFF	; 255
    117e:	7f 4f       	sbci	r23, 0xFF	; 255
    1180:	81 e0       	ldi	r24, 0x01	; 1
    1182:	90 e0       	ldi	r25, 0x00	; 0
    1184:	41 15       	cp	r20, r1
    1186:	51 05       	cpc	r21, r1
    1188:	61 05       	cpc	r22, r1
    118a:	20 e4       	ldi	r18, 0x40	; 64
    118c:	72 07       	cpc	r23, r18
    118e:	48 f5       	brcc	.+82     	; 0x11e2 <__stack+0xe3>
    1190:	80 e0       	ldi	r24, 0x00	; 0
    1192:	90 e0       	ldi	r25, 0x00	; 0
    1194:	26 c0       	rjmp	.+76     	; 0x11e2 <__stack+0xe3>
    1196:	20 38       	cpi	r18, 0x80	; 128
    1198:	31 05       	cpc	r19, r1
    119a:	8c f5       	brge	.+98     	; 0x11fe <__stack+0xff>
    119c:	db 01       	movw	r26, r22
    119e:	ca 01       	movw	r24, r20
    11a0:	8f 77       	andi	r24, 0x7F	; 127
    11a2:	99 27       	eor	r25, r25
    11a4:	aa 27       	eor	r26, r26
    11a6:	bb 27       	eor	r27, r27
    11a8:	80 34       	cpi	r24, 0x40	; 64
    11aa:	91 05       	cpc	r25, r1
    11ac:	a1 05       	cpc	r26, r1
    11ae:	b1 05       	cpc	r27, r1
    11b0:	39 f4       	brne	.+14     	; 0x11c0 <__stack+0xc1>
    11b2:	47 ff       	sbrs	r20, 7
    11b4:	09 c0       	rjmp	.+18     	; 0x11c8 <__stack+0xc9>
    11b6:	40 5c       	subi	r20, 0xC0	; 192
    11b8:	5f 4f       	sbci	r21, 0xFF	; 255
    11ba:	6f 4f       	sbci	r22, 0xFF	; 255
    11bc:	7f 4f       	sbci	r23, 0xFF	; 255
    11be:	04 c0       	rjmp	.+8      	; 0x11c8 <__stack+0xc9>
    11c0:	41 5c       	subi	r20, 0xC1	; 193
    11c2:	5f 4f       	sbci	r21, 0xFF	; 255
    11c4:	6f 4f       	sbci	r22, 0xFF	; 255
    11c6:	7f 4f       	sbci	r23, 0xFF	; 255
    11c8:	77 fd       	sbrc	r23, 7
    11ca:	04 c0       	rjmp	.+8      	; 0x11d4 <__stack+0xd5>
    11cc:	c9 01       	movw	r24, r18
    11ce:	81 58       	subi	r24, 0x81	; 129
    11d0:	9f 4f       	sbci	r25, 0xFF	; 255
    11d2:	07 c0       	rjmp	.+14     	; 0x11e2 <__stack+0xe3>
    11d4:	76 95       	lsr	r23
    11d6:	67 95       	ror	r22
    11d8:	57 95       	ror	r21
    11da:	47 95       	ror	r20
    11dc:	c9 01       	movw	r24, r18
    11de:	80 58       	subi	r24, 0x80	; 128
    11e0:	9f 4f       	sbci	r25, 0xFF	; 255
    11e2:	97 e0       	ldi	r25, 0x07	; 7
    11e4:	76 95       	lsr	r23
    11e6:	67 95       	ror	r22
    11e8:	57 95       	ror	r21
    11ea:	47 95       	ror	r20
    11ec:	9a 95       	dec	r25
    11ee:	d1 f7       	brne	.-12     	; 0x11e4 <__stack+0xe5>
    11f0:	0b c0       	rjmp	.+22     	; 0x1208 <__stack+0x109>
    11f2:	80 e0       	ldi	r24, 0x00	; 0
    11f4:	90 e0       	ldi	r25, 0x00	; 0
    11f6:	05 c0       	rjmp	.+10     	; 0x1202 <__stack+0x103>
    11f8:	80 e0       	ldi	r24, 0x00	; 0
    11fa:	90 e0       	ldi	r25, 0x00	; 0
    11fc:	05 c0       	rjmp	.+10     	; 0x1208 <__stack+0x109>
    11fe:	8f ef       	ldi	r24, 0xFF	; 255
    1200:	90 e0       	ldi	r25, 0x00	; 0
    1202:	40 e0       	ldi	r20, 0x00	; 0
    1204:	50 e0       	ldi	r21, 0x00	; 0
    1206:	ba 01       	movw	r22, r20
    1208:	98 2f       	mov	r25, r24
    120a:	96 95       	lsr	r25
    120c:	c0 fb       	bst	r28, 0
    120e:	97 f9       	bld	r25, 7
    1210:	36 2f       	mov	r19, r22
    1212:	80 fb       	bst	r24, 0
    1214:	37 f9       	bld	r19, 7
    1216:	64 2f       	mov	r22, r20
    1218:	75 2f       	mov	r23, r21
    121a:	83 2f       	mov	r24, r19
    121c:	cf 91       	pop	r28
    121e:	1f 91       	pop	r17
    1220:	0f 91       	pop	r16
    1222:	08 95       	ret

00001224 <__unpack_f>:
    1224:	cf 92       	push	r12
    1226:	df 92       	push	r13
    1228:	ef 92       	push	r14
    122a:	dc 01       	movw	r26, r24
    122c:	fb 01       	movw	r30, r22
    122e:	cc 90       	ld	r12, X
    1230:	11 96       	adiw	r26, 0x01	; 1
    1232:	dc 90       	ld	r13, X
    1234:	11 97       	sbiw	r26, 0x01	; 1
    1236:	12 96       	adiw	r26, 0x02	; 2
    1238:	8c 91       	ld	r24, X
    123a:	12 97       	sbiw	r26, 0x02	; 2
    123c:	3f e7       	ldi	r19, 0x7F	; 127
    123e:	e3 2e       	mov	r14, r19
    1240:	e8 22       	and	r14, r24
    1242:	6e 2d       	mov	r22, r14
    1244:	a6 01       	movw	r20, r12
    1246:	70 e0       	ldi	r23, 0x00	; 0
    1248:	98 2f       	mov	r25, r24
    124a:	99 1f       	adc	r25, r25
    124c:	99 27       	eor	r25, r25
    124e:	99 1f       	adc	r25, r25
    1250:	13 96       	adiw	r26, 0x03	; 3
    1252:	2c 91       	ld	r18, X
    1254:	82 2f       	mov	r24, r18
    1256:	88 0f       	add	r24, r24
    1258:	89 2b       	or	r24, r25
    125a:	90 e0       	ldi	r25, 0x00	; 0
    125c:	27 fb       	bst	r18, 7
    125e:	22 27       	eor	r18, r18
    1260:	20 f9       	bld	r18, 0
    1262:	21 83       	std	Z+1, r18	; 0x01
    1264:	00 97       	sbiw	r24, 0x00	; 0
    1266:	29 f5       	brne	.+74     	; 0x12b2 <__unpack_f+0x8e>
    1268:	41 15       	cp	r20, r1
    126a:	51 05       	cpc	r21, r1
    126c:	61 05       	cpc	r22, r1
    126e:	71 05       	cpc	r23, r1
    1270:	11 f4       	brne	.+4      	; 0x1276 <__unpack_f+0x52>
    1272:	82 e0       	ldi	r24, 0x02	; 2
    1274:	27 c0       	rjmp	.+78     	; 0x12c4 <__unpack_f+0xa0>
    1276:	82 e8       	ldi	r24, 0x82	; 130
    1278:	9f ef       	ldi	r25, 0xFF	; 255
    127a:	93 83       	std	Z+3, r25	; 0x03
    127c:	82 83       	std	Z+2, r24	; 0x02
    127e:	27 e0       	ldi	r18, 0x07	; 7
    1280:	44 0f       	add	r20, r20
    1282:	55 1f       	adc	r21, r21
    1284:	66 1f       	adc	r22, r22
    1286:	77 1f       	adc	r23, r23
    1288:	2a 95       	dec	r18
    128a:	d1 f7       	brne	.-12     	; 0x1280 <__unpack_f+0x5c>
    128c:	83 e0       	ldi	r24, 0x03	; 3
    128e:	80 83       	st	Z, r24
    1290:	09 c0       	rjmp	.+18     	; 0x12a4 <__unpack_f+0x80>
    1292:	44 0f       	add	r20, r20
    1294:	55 1f       	adc	r21, r21
    1296:	66 1f       	adc	r22, r22
    1298:	77 1f       	adc	r23, r23
    129a:	82 81       	ldd	r24, Z+2	; 0x02
    129c:	93 81       	ldd	r25, Z+3	; 0x03
    129e:	01 97       	sbiw	r24, 0x01	; 1
    12a0:	93 83       	std	Z+3, r25	; 0x03
    12a2:	82 83       	std	Z+2, r24	; 0x02
    12a4:	41 15       	cp	r20, r1
    12a6:	51 05       	cpc	r21, r1
    12a8:	61 05       	cpc	r22, r1
    12aa:	80 e4       	ldi	r24, 0x40	; 64
    12ac:	78 07       	cpc	r23, r24
    12ae:	88 f3       	brcs	.-30     	; 0x1292 <__unpack_f+0x6e>
    12b0:	20 c0       	rjmp	.+64     	; 0x12f2 <__unpack_f+0xce>
    12b2:	8f 3f       	cpi	r24, 0xFF	; 255
    12b4:	91 05       	cpc	r25, r1
    12b6:	79 f4       	brne	.+30     	; 0x12d6 <__unpack_f+0xb2>
    12b8:	41 15       	cp	r20, r1
    12ba:	51 05       	cpc	r21, r1
    12bc:	61 05       	cpc	r22, r1
    12be:	71 05       	cpc	r23, r1
    12c0:	19 f4       	brne	.+6      	; 0x12c8 <__unpack_f+0xa4>
    12c2:	84 e0       	ldi	r24, 0x04	; 4
    12c4:	80 83       	st	Z, r24
    12c6:	19 c0       	rjmp	.+50     	; 0x12fa <__unpack_f+0xd6>
    12c8:	e4 fe       	sbrs	r14, 4
    12ca:	03 c0       	rjmp	.+6      	; 0x12d2 <__unpack_f+0xae>
    12cc:	81 e0       	ldi	r24, 0x01	; 1
    12ce:	80 83       	st	Z, r24
    12d0:	10 c0       	rjmp	.+32     	; 0x12f2 <__unpack_f+0xce>
    12d2:	10 82       	st	Z, r1
    12d4:	0e c0       	rjmp	.+28     	; 0x12f2 <__unpack_f+0xce>
    12d6:	8f 57       	subi	r24, 0x7F	; 127
    12d8:	91 09       	sbc	r25, r1
    12da:	93 83       	std	Z+3, r25	; 0x03
    12dc:	82 83       	std	Z+2, r24	; 0x02
    12de:	83 e0       	ldi	r24, 0x03	; 3
    12e0:	80 83       	st	Z, r24
    12e2:	87 e0       	ldi	r24, 0x07	; 7
    12e4:	44 0f       	add	r20, r20
    12e6:	55 1f       	adc	r21, r21
    12e8:	66 1f       	adc	r22, r22
    12ea:	77 1f       	adc	r23, r23
    12ec:	8a 95       	dec	r24
    12ee:	d1 f7       	brne	.-12     	; 0x12e4 <__unpack_f+0xc0>
    12f0:	70 64       	ori	r23, 0x40	; 64
    12f2:	44 83       	std	Z+4, r20	; 0x04
    12f4:	55 83       	std	Z+5, r21	; 0x05
    12f6:	66 83       	std	Z+6, r22	; 0x06
    12f8:	77 83       	std	Z+7, r23	; 0x07
    12fa:	ef 90       	pop	r14
    12fc:	df 90       	pop	r13
    12fe:	cf 90       	pop	r12
    1300:	08 95       	ret

00001302 <__fpcmp_parts_f>:
    1302:	cf 93       	push	r28
    1304:	fc 01       	movw	r30, r24
    1306:	db 01       	movw	r26, r22
    1308:	90 81       	ld	r25, Z
    130a:	92 30       	cpi	r25, 0x02	; 2
    130c:	08 f4       	brcc	.+2      	; 0x1310 <__fpcmp_parts_f+0xe>
    130e:	52 c0       	rjmp	.+164    	; 0x13b4 <__fpcmp_parts_f+0xb2>
    1310:	8c 91       	ld	r24, X
    1312:	82 30       	cpi	r24, 0x02	; 2
    1314:	08 f4       	brcc	.+2      	; 0x1318 <__fpcmp_parts_f+0x16>
    1316:	4e c0       	rjmp	.+156    	; 0x13b4 <__fpcmp_parts_f+0xb2>
    1318:	94 30       	cpi	r25, 0x04	; 4
    131a:	71 f4       	brne	.+28     	; 0x1338 <__fpcmp_parts_f+0x36>
    131c:	84 30       	cpi	r24, 0x04	; 4
    131e:	39 f4       	brne	.+14     	; 0x132e <__fpcmp_parts_f+0x2c>
    1320:	11 96       	adiw	r26, 0x01	; 1
    1322:	2c 91       	ld	r18, X
    1324:	30 e0       	ldi	r19, 0x00	; 0
    1326:	81 81       	ldd	r24, Z+1	; 0x01
    1328:	28 1b       	sub	r18, r24
    132a:	31 09       	sbc	r19, r1
    132c:	48 c0       	rjmp	.+144    	; 0x13be <__fpcmp_parts_f+0xbc>
    132e:	81 81       	ldd	r24, Z+1	; 0x01
    1330:	88 23       	and	r24, r24
    1332:	09 f4       	brne	.+2      	; 0x1336 <__fpcmp_parts_f+0x34>
    1334:	3f c0       	rjmp	.+126    	; 0x13b4 <__fpcmp_parts_f+0xb2>
    1336:	3b c0       	rjmp	.+118    	; 0x13ae <__fpcmp_parts_f+0xac>
    1338:	84 30       	cpi	r24, 0x04	; 4
    133a:	29 f4       	brne	.+10     	; 0x1346 <__fpcmp_parts_f+0x44>
    133c:	11 96       	adiw	r26, 0x01	; 1
    133e:	8c 91       	ld	r24, X
    1340:	81 11       	cpse	r24, r1
    1342:	38 c0       	rjmp	.+112    	; 0x13b4 <__fpcmp_parts_f+0xb2>
    1344:	34 c0       	rjmp	.+104    	; 0x13ae <__fpcmp_parts_f+0xac>
    1346:	92 30       	cpi	r25, 0x02	; 2
    1348:	19 f4       	brne	.+6      	; 0x1350 <__fpcmp_parts_f+0x4e>
    134a:	82 30       	cpi	r24, 0x02	; 2
    134c:	b9 f7       	brne	.-18     	; 0x133c <__fpcmp_parts_f+0x3a>
    134e:	35 c0       	rjmp	.+106    	; 0x13ba <__fpcmp_parts_f+0xb8>
    1350:	82 30       	cpi	r24, 0x02	; 2
    1352:	69 f3       	breq	.-38     	; 0x132e <__fpcmp_parts_f+0x2c>
    1354:	c1 81       	ldd	r28, Z+1	; 0x01
    1356:	11 96       	adiw	r26, 0x01	; 1
    1358:	8c 91       	ld	r24, X
    135a:	11 97       	sbiw	r26, 0x01	; 1
    135c:	c8 13       	cpse	r28, r24
    135e:	1d c0       	rjmp	.+58     	; 0x139a <__fpcmp_parts_f+0x98>
    1360:	22 81       	ldd	r18, Z+2	; 0x02
    1362:	33 81       	ldd	r19, Z+3	; 0x03
    1364:	12 96       	adiw	r26, 0x02	; 2
    1366:	8d 91       	ld	r24, X+
    1368:	9c 91       	ld	r25, X
    136a:	13 97       	sbiw	r26, 0x03	; 3
    136c:	82 17       	cp	r24, r18
    136e:	93 07       	cpc	r25, r19
    1370:	0c f4       	brge	.+2      	; 0x1374 <__fpcmp_parts_f+0x72>
    1372:	13 c0       	rjmp	.+38     	; 0x139a <__fpcmp_parts_f+0x98>
    1374:	28 17       	cp	r18, r24
    1376:	39 07       	cpc	r19, r25
    1378:	0c f4       	brge	.+2      	; 0x137c <__fpcmp_parts_f+0x7a>
    137a:	17 c0       	rjmp	.+46     	; 0x13aa <__fpcmp_parts_f+0xa8>
    137c:	44 81       	ldd	r20, Z+4	; 0x04
    137e:	55 81       	ldd	r21, Z+5	; 0x05
    1380:	66 81       	ldd	r22, Z+6	; 0x06
    1382:	77 81       	ldd	r23, Z+7	; 0x07
    1384:	14 96       	adiw	r26, 0x04	; 4
    1386:	8d 91       	ld	r24, X+
    1388:	9d 91       	ld	r25, X+
    138a:	0d 90       	ld	r0, X+
    138c:	bc 91       	ld	r27, X
    138e:	a0 2d       	mov	r26, r0
    1390:	84 17       	cp	r24, r20
    1392:	95 07       	cpc	r25, r21
    1394:	a6 07       	cpc	r26, r22
    1396:	b7 07       	cpc	r27, r23
    1398:	18 f4       	brcc	.+6      	; 0x13a0 <__fpcmp_parts_f+0x9e>
    139a:	c1 11       	cpse	r28, r1
    139c:	08 c0       	rjmp	.+16     	; 0x13ae <__fpcmp_parts_f+0xac>
    139e:	0a c0       	rjmp	.+20     	; 0x13b4 <__fpcmp_parts_f+0xb2>
    13a0:	48 17       	cp	r20, r24
    13a2:	59 07       	cpc	r21, r25
    13a4:	6a 07       	cpc	r22, r26
    13a6:	7b 07       	cpc	r23, r27
    13a8:	40 f4       	brcc	.+16     	; 0x13ba <__fpcmp_parts_f+0xb8>
    13aa:	c1 11       	cpse	r28, r1
    13ac:	03 c0       	rjmp	.+6      	; 0x13b4 <__fpcmp_parts_f+0xb2>
    13ae:	2f ef       	ldi	r18, 0xFF	; 255
    13b0:	3f ef       	ldi	r19, 0xFF	; 255
    13b2:	05 c0       	rjmp	.+10     	; 0x13be <__fpcmp_parts_f+0xbc>
    13b4:	21 e0       	ldi	r18, 0x01	; 1
    13b6:	30 e0       	ldi	r19, 0x00	; 0
    13b8:	02 c0       	rjmp	.+4      	; 0x13be <__fpcmp_parts_f+0xbc>
    13ba:	20 e0       	ldi	r18, 0x00	; 0
    13bc:	30 e0       	ldi	r19, 0x00	; 0
    13be:	c9 01       	movw	r24, r18
    13c0:	cf 91       	pop	r28
    13c2:	08 95       	ret

000013c4 <__prologue_saves__>:
    13c4:	2f 92       	push	r2
    13c6:	3f 92       	push	r3
    13c8:	4f 92       	push	r4
    13ca:	5f 92       	push	r5
    13cc:	6f 92       	push	r6
    13ce:	7f 92       	push	r7
    13d0:	8f 92       	push	r8
    13d2:	9f 92       	push	r9
    13d4:	af 92       	push	r10
    13d6:	bf 92       	push	r11
    13d8:	cf 92       	push	r12
    13da:	df 92       	push	r13
    13dc:	ef 92       	push	r14
    13de:	ff 92       	push	r15
    13e0:	0f 93       	push	r16
    13e2:	1f 93       	push	r17
    13e4:	cf 93       	push	r28
    13e6:	df 93       	push	r29
    13e8:	cd b7       	in	r28, 0x3d	; 61
    13ea:	de b7       	in	r29, 0x3e	; 62
    13ec:	ca 1b       	sub	r28, r26
    13ee:	db 0b       	sbc	r29, r27
    13f0:	0f b6       	in	r0, 0x3f	; 63
    13f2:	f8 94       	cli
    13f4:	de bf       	out	0x3e, r29	; 62
    13f6:	0f be       	out	0x3f, r0	; 63
    13f8:	cd bf       	out	0x3d, r28	; 61
    13fa:	09 94       	ijmp

000013fc <__epilogue_restores__>:
    13fc:	2a 88       	ldd	r2, Y+18	; 0x12
    13fe:	39 88       	ldd	r3, Y+17	; 0x11
    1400:	48 88       	ldd	r4, Y+16	; 0x10
    1402:	5f 84       	ldd	r5, Y+15	; 0x0f
    1404:	6e 84       	ldd	r6, Y+14	; 0x0e
    1406:	7d 84       	ldd	r7, Y+13	; 0x0d
    1408:	8c 84       	ldd	r8, Y+12	; 0x0c
    140a:	9b 84       	ldd	r9, Y+11	; 0x0b
    140c:	aa 84       	ldd	r10, Y+10	; 0x0a
    140e:	b9 84       	ldd	r11, Y+9	; 0x09
    1410:	c8 84       	ldd	r12, Y+8	; 0x08
    1412:	df 80       	ldd	r13, Y+7	; 0x07
    1414:	ee 80       	ldd	r14, Y+6	; 0x06
    1416:	fd 80       	ldd	r15, Y+5	; 0x05
    1418:	0c 81       	ldd	r16, Y+4	; 0x04
    141a:	1b 81       	ldd	r17, Y+3	; 0x03
    141c:	aa 81       	ldd	r26, Y+2	; 0x02
    141e:	b9 81       	ldd	r27, Y+1	; 0x01
    1420:	ce 0f       	add	r28, r30
    1422:	d1 1d       	adc	r29, r1
    1424:	0f b6       	in	r0, 0x3f	; 63
    1426:	f8 94       	cli
    1428:	de bf       	out	0x3e, r29	; 62
    142a:	0f be       	out	0x3f, r0	; 63
    142c:	cd bf       	out	0x3d, r28	; 61
    142e:	ed 01       	movw	r28, r26
    1430:	08 95       	ret

00001432 <sprintf>:
    1432:	0f 93       	push	r16
    1434:	1f 93       	push	r17
    1436:	cf 93       	push	r28
    1438:	df 93       	push	r29
    143a:	cd b7       	in	r28, 0x3d	; 61
    143c:	de b7       	in	r29, 0x3e	; 62
    143e:	60 97       	sbiw	r28, 0x10	; 16
    1440:	0f b6       	in	r0, 0x3f	; 63
    1442:	f8 94       	cli
    1444:	de bf       	out	0x3e, r29	; 62
    1446:	0f be       	out	0x3f, r0	; 63
    1448:	cd bf       	out	0x3d, r28	; 61
    144a:	0f 89       	ldd	r16, Y+23	; 0x17
    144c:	18 8d       	ldd	r17, Y+24	; 0x18
    144e:	86 e0       	ldi	r24, 0x06	; 6
    1450:	8c 83       	std	Y+4, r24	; 0x04
    1452:	1a 83       	std	Y+2, r17	; 0x02
    1454:	09 83       	std	Y+1, r16	; 0x01
    1456:	8f ef       	ldi	r24, 0xFF	; 255
    1458:	9f e7       	ldi	r25, 0x7F	; 127
    145a:	9e 83       	std	Y+6, r25	; 0x06
    145c:	8d 83       	std	Y+5, r24	; 0x05
    145e:	ae 01       	movw	r20, r28
    1460:	45 5e       	subi	r20, 0xE5	; 229
    1462:	5f 4f       	sbci	r21, 0xFF	; 255
    1464:	58 8b       	std	Y+16, r21	; 0x10
    1466:	4f 87       	std	Y+15, r20	; 0x0f
    1468:	69 8d       	ldd	r22, Y+25	; 0x19
    146a:	7a 8d       	ldd	r23, Y+26	; 0x1a
    146c:	ce 01       	movw	r24, r28
    146e:	01 96       	adiw	r24, 0x01	; 1
    1470:	0e 94 4a 0a 	call	0x1494	; 0x1494 <vfprintf>
    1474:	ef 81       	ldd	r30, Y+7	; 0x07
    1476:	f8 85       	ldd	r31, Y+8	; 0x08
    1478:	e0 0f       	add	r30, r16
    147a:	f1 1f       	adc	r31, r17
    147c:	10 82       	st	Z, r1
    147e:	60 96       	adiw	r28, 0x10	; 16
    1480:	0f b6       	in	r0, 0x3f	; 63
    1482:	f8 94       	cli
    1484:	de bf       	out	0x3e, r29	; 62
    1486:	0f be       	out	0x3f, r0	; 63
    1488:	cd bf       	out	0x3d, r28	; 61
    148a:	df 91       	pop	r29
    148c:	cf 91       	pop	r28
    148e:	1f 91       	pop	r17
    1490:	0f 91       	pop	r16
    1492:	08 95       	ret

00001494 <vfprintf>:
    1494:	2f 92       	push	r2
    1496:	3f 92       	push	r3
    1498:	4f 92       	push	r4
    149a:	5f 92       	push	r5
    149c:	6f 92       	push	r6
    149e:	7f 92       	push	r7
    14a0:	8f 92       	push	r8
    14a2:	9f 92       	push	r9
    14a4:	af 92       	push	r10
    14a6:	bf 92       	push	r11
    14a8:	cf 92       	push	r12
    14aa:	df 92       	push	r13
    14ac:	ef 92       	push	r14
    14ae:	ff 92       	push	r15
    14b0:	0f 93       	push	r16
    14b2:	1f 93       	push	r17
    14b4:	cf 93       	push	r28
    14b6:	df 93       	push	r29
    14b8:	cd b7       	in	r28, 0x3d	; 61
    14ba:	de b7       	in	r29, 0x3e	; 62
    14bc:	2c 97       	sbiw	r28, 0x0c	; 12
    14be:	0f b6       	in	r0, 0x3f	; 63
    14c0:	f8 94       	cli
    14c2:	de bf       	out	0x3e, r29	; 62
    14c4:	0f be       	out	0x3f, r0	; 63
    14c6:	cd bf       	out	0x3d, r28	; 61
    14c8:	7c 01       	movw	r14, r24
    14ca:	6b 01       	movw	r12, r22
    14cc:	8a 01       	movw	r16, r20
    14ce:	fc 01       	movw	r30, r24
    14d0:	17 82       	std	Z+7, r1	; 0x07
    14d2:	16 82       	std	Z+6, r1	; 0x06
    14d4:	83 81       	ldd	r24, Z+3	; 0x03
    14d6:	81 ff       	sbrs	r24, 1
    14d8:	c7 c1       	rjmp	.+910    	; 0x1868 <vfprintf+0x3d4>
    14da:	88 24       	eor	r8, r8
    14dc:	83 94       	inc	r8
    14de:	91 2c       	mov	r9, r1
    14e0:	8c 0e       	add	r8, r28
    14e2:	9d 1e       	adc	r9, r29
    14e4:	f7 01       	movw	r30, r14
    14e6:	93 81       	ldd	r25, Z+3	; 0x03
    14e8:	f6 01       	movw	r30, r12
    14ea:	93 fd       	sbrc	r25, 3
    14ec:	85 91       	lpm	r24, Z+
    14ee:	93 ff       	sbrs	r25, 3
    14f0:	81 91       	ld	r24, Z+
    14f2:	6f 01       	movw	r12, r30
    14f4:	88 23       	and	r24, r24
    14f6:	09 f4       	brne	.+2      	; 0x14fa <vfprintf+0x66>
    14f8:	b3 c1       	rjmp	.+870    	; 0x1860 <vfprintf+0x3cc>
    14fa:	85 32       	cpi	r24, 0x25	; 37
    14fc:	39 f4       	brne	.+14     	; 0x150c <vfprintf+0x78>
    14fe:	93 fd       	sbrc	r25, 3
    1500:	85 91       	lpm	r24, Z+
    1502:	93 ff       	sbrs	r25, 3
    1504:	81 91       	ld	r24, Z+
    1506:	6f 01       	movw	r12, r30
    1508:	85 32       	cpi	r24, 0x25	; 37
    150a:	29 f4       	brne	.+10     	; 0x1516 <vfprintf+0x82>
    150c:	b7 01       	movw	r22, r14
    150e:	90 e0       	ldi	r25, 0x00	; 0
    1510:	0e 94 66 0c 	call	0x18cc	; 0x18cc <fputc>
    1514:	e7 cf       	rjmp	.-50     	; 0x14e4 <vfprintf+0x50>
    1516:	71 2c       	mov	r7, r1
    1518:	31 2c       	mov	r3, r1
    151a:	20 e0       	ldi	r18, 0x00	; 0
    151c:	20 32       	cpi	r18, 0x20	; 32
    151e:	a8 f4       	brcc	.+42     	; 0x154a <vfprintf+0xb6>
    1520:	8b 32       	cpi	r24, 0x2B	; 43
    1522:	61 f0       	breq	.+24     	; 0x153c <vfprintf+0xa8>
    1524:	28 f4       	brcc	.+10     	; 0x1530 <vfprintf+0x9c>
    1526:	80 32       	cpi	r24, 0x20	; 32
    1528:	51 f0       	breq	.+20     	; 0x153e <vfprintf+0xaa>
    152a:	83 32       	cpi	r24, 0x23	; 35
    152c:	71 f4       	brne	.+28     	; 0x154a <vfprintf+0xb6>
    152e:	0b c0       	rjmp	.+22     	; 0x1546 <vfprintf+0xb2>
    1530:	8d 32       	cpi	r24, 0x2D	; 45
    1532:	39 f0       	breq	.+14     	; 0x1542 <vfprintf+0xae>
    1534:	80 33       	cpi	r24, 0x30	; 48
    1536:	49 f4       	brne	.+18     	; 0x154a <vfprintf+0xb6>
    1538:	21 60       	ori	r18, 0x01	; 1
    153a:	28 c0       	rjmp	.+80     	; 0x158c <vfprintf+0xf8>
    153c:	22 60       	ori	r18, 0x02	; 2
    153e:	24 60       	ori	r18, 0x04	; 4
    1540:	25 c0       	rjmp	.+74     	; 0x158c <vfprintf+0xf8>
    1542:	28 60       	ori	r18, 0x08	; 8
    1544:	23 c0       	rjmp	.+70     	; 0x158c <vfprintf+0xf8>
    1546:	20 61       	ori	r18, 0x10	; 16
    1548:	21 c0       	rjmp	.+66     	; 0x158c <vfprintf+0xf8>
    154a:	27 fd       	sbrc	r18, 7
    154c:	27 c0       	rjmp	.+78     	; 0x159c <vfprintf+0x108>
    154e:	38 2f       	mov	r19, r24
    1550:	30 53       	subi	r19, 0x30	; 48
    1552:	3a 30       	cpi	r19, 0x0A	; 10
    1554:	78 f4       	brcc	.+30     	; 0x1574 <vfprintf+0xe0>
    1556:	26 ff       	sbrs	r18, 6
    1558:	06 c0       	rjmp	.+12     	; 0x1566 <vfprintf+0xd2>
    155a:	fa e0       	ldi	r31, 0x0A	; 10
    155c:	7f 9e       	mul	r7, r31
    155e:	30 0d       	add	r19, r0
    1560:	11 24       	eor	r1, r1
    1562:	73 2e       	mov	r7, r19
    1564:	13 c0       	rjmp	.+38     	; 0x158c <vfprintf+0xf8>
    1566:	8a e0       	ldi	r24, 0x0A	; 10
    1568:	38 9e       	mul	r3, r24
    156a:	30 0d       	add	r19, r0
    156c:	11 24       	eor	r1, r1
    156e:	33 2e       	mov	r3, r19
    1570:	20 62       	ori	r18, 0x20	; 32
    1572:	0c c0       	rjmp	.+24     	; 0x158c <vfprintf+0xf8>
    1574:	8e 32       	cpi	r24, 0x2E	; 46
    1576:	21 f4       	brne	.+8      	; 0x1580 <vfprintf+0xec>
    1578:	26 fd       	sbrc	r18, 6
    157a:	72 c1       	rjmp	.+740    	; 0x1860 <vfprintf+0x3cc>
    157c:	20 64       	ori	r18, 0x40	; 64
    157e:	06 c0       	rjmp	.+12     	; 0x158c <vfprintf+0xf8>
    1580:	8c 36       	cpi	r24, 0x6C	; 108
    1582:	11 f4       	brne	.+4      	; 0x1588 <vfprintf+0xf4>
    1584:	20 68       	ori	r18, 0x80	; 128
    1586:	02 c0       	rjmp	.+4      	; 0x158c <vfprintf+0xf8>
    1588:	88 36       	cpi	r24, 0x68	; 104
    158a:	41 f4       	brne	.+16     	; 0x159c <vfprintf+0x108>
    158c:	f6 01       	movw	r30, r12
    158e:	93 fd       	sbrc	r25, 3
    1590:	85 91       	lpm	r24, Z+
    1592:	93 ff       	sbrs	r25, 3
    1594:	81 91       	ld	r24, Z+
    1596:	6f 01       	movw	r12, r30
    1598:	81 11       	cpse	r24, r1
    159a:	c0 cf       	rjmp	.-128    	; 0x151c <vfprintf+0x88>
    159c:	98 2f       	mov	r25, r24
    159e:	95 54       	subi	r25, 0x45	; 69
    15a0:	93 30       	cpi	r25, 0x03	; 3
    15a2:	18 f0       	brcs	.+6      	; 0x15aa <vfprintf+0x116>
    15a4:	90 52       	subi	r25, 0x20	; 32
    15a6:	93 30       	cpi	r25, 0x03	; 3
    15a8:	28 f4       	brcc	.+10     	; 0x15b4 <vfprintf+0x120>
    15aa:	0c 5f       	subi	r16, 0xFC	; 252
    15ac:	1f 4f       	sbci	r17, 0xFF	; 255
    15ae:	ff e3       	ldi	r31, 0x3F	; 63
    15b0:	f9 83       	std	Y+1, r31	; 0x01
    15b2:	0d c0       	rjmp	.+26     	; 0x15ce <vfprintf+0x13a>
    15b4:	83 36       	cpi	r24, 0x63	; 99
    15b6:	31 f0       	breq	.+12     	; 0x15c4 <vfprintf+0x130>
    15b8:	83 37       	cpi	r24, 0x73	; 115
    15ba:	71 f0       	breq	.+28     	; 0x15d8 <vfprintf+0x144>
    15bc:	83 35       	cpi	r24, 0x53	; 83
    15be:	09 f0       	breq	.+2      	; 0x15c2 <vfprintf+0x12e>
    15c0:	5e c0       	rjmp	.+188    	; 0x167e <vfprintf+0x1ea>
    15c2:	23 c0       	rjmp	.+70     	; 0x160a <vfprintf+0x176>
    15c4:	f8 01       	movw	r30, r16
    15c6:	80 81       	ld	r24, Z
    15c8:	89 83       	std	Y+1, r24	; 0x01
    15ca:	0e 5f       	subi	r16, 0xFE	; 254
    15cc:	1f 4f       	sbci	r17, 0xFF	; 255
    15ce:	66 24       	eor	r6, r6
    15d0:	63 94       	inc	r6
    15d2:	71 2c       	mov	r7, r1
    15d4:	54 01       	movw	r10, r8
    15d6:	15 c0       	rjmp	.+42     	; 0x1602 <vfprintf+0x16e>
    15d8:	28 01       	movw	r4, r16
    15da:	f2 e0       	ldi	r31, 0x02	; 2
    15dc:	4f 0e       	add	r4, r31
    15de:	51 1c       	adc	r5, r1
    15e0:	f8 01       	movw	r30, r16
    15e2:	a0 80       	ld	r10, Z
    15e4:	b1 80       	ldd	r11, Z+1	; 0x01
    15e6:	26 ff       	sbrs	r18, 6
    15e8:	03 c0       	rjmp	.+6      	; 0x15f0 <vfprintf+0x15c>
    15ea:	67 2d       	mov	r22, r7
    15ec:	70 e0       	ldi	r23, 0x00	; 0
    15ee:	02 c0       	rjmp	.+4      	; 0x15f4 <vfprintf+0x160>
    15f0:	6f ef       	ldi	r22, 0xFF	; 255
    15f2:	7f ef       	ldi	r23, 0xFF	; 255
    15f4:	c5 01       	movw	r24, r10
    15f6:	2c 87       	std	Y+12, r18	; 0x0c
    15f8:	0e 94 5b 0c 	call	0x18b6	; 0x18b6 <strnlen>
    15fc:	3c 01       	movw	r6, r24
    15fe:	82 01       	movw	r16, r4
    1600:	2c 85       	ldd	r18, Y+12	; 0x0c
    1602:	6f e7       	ldi	r22, 0x7F	; 127
    1604:	26 2e       	mov	r2, r22
    1606:	22 22       	and	r2, r18
    1608:	18 c0       	rjmp	.+48     	; 0x163a <vfprintf+0x1a6>
    160a:	28 01       	movw	r4, r16
    160c:	f2 e0       	ldi	r31, 0x02	; 2
    160e:	4f 0e       	add	r4, r31
    1610:	51 1c       	adc	r5, r1
    1612:	f8 01       	movw	r30, r16
    1614:	a0 80       	ld	r10, Z
    1616:	b1 80       	ldd	r11, Z+1	; 0x01
    1618:	26 ff       	sbrs	r18, 6
    161a:	03 c0       	rjmp	.+6      	; 0x1622 <vfprintf+0x18e>
    161c:	67 2d       	mov	r22, r7
    161e:	70 e0       	ldi	r23, 0x00	; 0
    1620:	02 c0       	rjmp	.+4      	; 0x1626 <vfprintf+0x192>
    1622:	6f ef       	ldi	r22, 0xFF	; 255
    1624:	7f ef       	ldi	r23, 0xFF	; 255
    1626:	c5 01       	movw	r24, r10
    1628:	2c 87       	std	Y+12, r18	; 0x0c
    162a:	0e 94 50 0c 	call	0x18a0	; 0x18a0 <strnlen_P>
    162e:	3c 01       	movw	r6, r24
    1630:	2c 85       	ldd	r18, Y+12	; 0x0c
    1632:	50 e8       	ldi	r21, 0x80	; 128
    1634:	25 2e       	mov	r2, r21
    1636:	22 2a       	or	r2, r18
    1638:	82 01       	movw	r16, r4
    163a:	23 fc       	sbrc	r2, 3
    163c:	1c c0       	rjmp	.+56     	; 0x1676 <vfprintf+0x1e2>
    163e:	06 c0       	rjmp	.+12     	; 0x164c <vfprintf+0x1b8>
    1640:	b7 01       	movw	r22, r14
    1642:	80 e2       	ldi	r24, 0x20	; 32
    1644:	90 e0       	ldi	r25, 0x00	; 0
    1646:	0e 94 66 0c 	call	0x18cc	; 0x18cc <fputc>
    164a:	3a 94       	dec	r3
    164c:	83 2d       	mov	r24, r3
    164e:	90 e0       	ldi	r25, 0x00	; 0
    1650:	68 16       	cp	r6, r24
    1652:	79 06       	cpc	r7, r25
    1654:	a8 f3       	brcs	.-22     	; 0x1640 <vfprintf+0x1ac>
    1656:	0f c0       	rjmp	.+30     	; 0x1676 <vfprintf+0x1e2>
    1658:	f5 01       	movw	r30, r10
    165a:	27 fc       	sbrc	r2, 7
    165c:	85 91       	lpm	r24, Z+
    165e:	27 fe       	sbrs	r2, 7
    1660:	81 91       	ld	r24, Z+
    1662:	5f 01       	movw	r10, r30
    1664:	b7 01       	movw	r22, r14
    1666:	90 e0       	ldi	r25, 0x00	; 0
    1668:	0e 94 66 0c 	call	0x18cc	; 0x18cc <fputc>
    166c:	31 10       	cpse	r3, r1
    166e:	3a 94       	dec	r3
    1670:	f1 e0       	ldi	r31, 0x01	; 1
    1672:	6f 1a       	sub	r6, r31
    1674:	71 08       	sbc	r7, r1
    1676:	61 14       	cp	r6, r1
    1678:	71 04       	cpc	r7, r1
    167a:	71 f7       	brne	.-36     	; 0x1658 <vfprintf+0x1c4>
    167c:	ee c0       	rjmp	.+476    	; 0x185a <vfprintf+0x3c6>
    167e:	84 36       	cpi	r24, 0x64	; 100
    1680:	11 f0       	breq	.+4      	; 0x1686 <vfprintf+0x1f2>
    1682:	89 36       	cpi	r24, 0x69	; 105
    1684:	41 f5       	brne	.+80     	; 0x16d6 <vfprintf+0x242>
    1686:	f8 01       	movw	r30, r16
    1688:	27 ff       	sbrs	r18, 7
    168a:	07 c0       	rjmp	.+14     	; 0x169a <vfprintf+0x206>
    168c:	60 81       	ld	r22, Z
    168e:	71 81       	ldd	r23, Z+1	; 0x01
    1690:	82 81       	ldd	r24, Z+2	; 0x02
    1692:	93 81       	ldd	r25, Z+3	; 0x03
    1694:	0c 5f       	subi	r16, 0xFC	; 252
    1696:	1f 4f       	sbci	r17, 0xFF	; 255
    1698:	08 c0       	rjmp	.+16     	; 0x16aa <vfprintf+0x216>
    169a:	60 81       	ld	r22, Z
    169c:	71 81       	ldd	r23, Z+1	; 0x01
    169e:	88 27       	eor	r24, r24
    16a0:	77 fd       	sbrc	r23, 7
    16a2:	80 95       	com	r24
    16a4:	98 2f       	mov	r25, r24
    16a6:	0e 5f       	subi	r16, 0xFE	; 254
    16a8:	1f 4f       	sbci	r17, 0xFF	; 255
    16aa:	4f e6       	ldi	r20, 0x6F	; 111
    16ac:	64 2e       	mov	r6, r20
    16ae:	62 22       	and	r6, r18
    16b0:	97 ff       	sbrs	r25, 7
    16b2:	09 c0       	rjmp	.+18     	; 0x16c6 <vfprintf+0x232>
    16b4:	90 95       	com	r25
    16b6:	80 95       	com	r24
    16b8:	70 95       	com	r23
    16ba:	61 95       	neg	r22
    16bc:	7f 4f       	sbci	r23, 0xFF	; 255
    16be:	8f 4f       	sbci	r24, 0xFF	; 255
    16c0:	9f 4f       	sbci	r25, 0xFF	; 255
    16c2:	f0 e8       	ldi	r31, 0x80	; 128
    16c4:	6f 2a       	or	r6, r31
    16c6:	2a e0       	ldi	r18, 0x0A	; 10
    16c8:	30 e0       	ldi	r19, 0x00	; 0
    16ca:	a4 01       	movw	r20, r8
    16cc:	0e 94 92 0c 	call	0x1924	; 0x1924 <__ultoa_invert>
    16d0:	a8 2e       	mov	r10, r24
    16d2:	a8 18       	sub	r10, r8
    16d4:	44 c0       	rjmp	.+136    	; 0x175e <vfprintf+0x2ca>
    16d6:	85 37       	cpi	r24, 0x75	; 117
    16d8:	31 f4       	brne	.+12     	; 0x16e6 <vfprintf+0x252>
    16da:	3f ee       	ldi	r19, 0xEF	; 239
    16dc:	b3 2e       	mov	r11, r19
    16de:	b2 22       	and	r11, r18
    16e0:	2a e0       	ldi	r18, 0x0A	; 10
    16e2:	30 e0       	ldi	r19, 0x00	; 0
    16e4:	24 c0       	rjmp	.+72     	; 0x172e <vfprintf+0x29a>
    16e6:	99 ef       	ldi	r25, 0xF9	; 249
    16e8:	b9 2e       	mov	r11, r25
    16ea:	b2 22       	and	r11, r18
    16ec:	8f 36       	cpi	r24, 0x6F	; 111
    16ee:	b9 f0       	breq	.+46     	; 0x171e <vfprintf+0x28a>
    16f0:	20 f4       	brcc	.+8      	; 0x16fa <vfprintf+0x266>
    16f2:	88 35       	cpi	r24, 0x58	; 88
    16f4:	09 f0       	breq	.+2      	; 0x16f8 <vfprintf+0x264>
    16f6:	b4 c0       	rjmp	.+360    	; 0x1860 <vfprintf+0x3cc>
    16f8:	0d c0       	rjmp	.+26     	; 0x1714 <vfprintf+0x280>
    16fa:	80 37       	cpi	r24, 0x70	; 112
    16fc:	21 f0       	breq	.+8      	; 0x1706 <vfprintf+0x272>
    16fe:	88 37       	cpi	r24, 0x78	; 120
    1700:	09 f0       	breq	.+2      	; 0x1704 <vfprintf+0x270>
    1702:	ae c0       	rjmp	.+348    	; 0x1860 <vfprintf+0x3cc>
    1704:	02 c0       	rjmp	.+4      	; 0x170a <vfprintf+0x276>
    1706:	20 e1       	ldi	r18, 0x10	; 16
    1708:	b2 2a       	or	r11, r18
    170a:	b4 fe       	sbrs	r11, 4
    170c:	0b c0       	rjmp	.+22     	; 0x1724 <vfprintf+0x290>
    170e:	84 e0       	ldi	r24, 0x04	; 4
    1710:	b8 2a       	or	r11, r24
    1712:	08 c0       	rjmp	.+16     	; 0x1724 <vfprintf+0x290>
    1714:	24 ff       	sbrs	r18, 4
    1716:	09 c0       	rjmp	.+18     	; 0x172a <vfprintf+0x296>
    1718:	e6 e0       	ldi	r30, 0x06	; 6
    171a:	be 2a       	or	r11, r30
    171c:	06 c0       	rjmp	.+12     	; 0x172a <vfprintf+0x296>
    171e:	28 e0       	ldi	r18, 0x08	; 8
    1720:	30 e0       	ldi	r19, 0x00	; 0
    1722:	05 c0       	rjmp	.+10     	; 0x172e <vfprintf+0x29a>
    1724:	20 e1       	ldi	r18, 0x10	; 16
    1726:	30 e0       	ldi	r19, 0x00	; 0
    1728:	02 c0       	rjmp	.+4      	; 0x172e <vfprintf+0x29a>
    172a:	20 e1       	ldi	r18, 0x10	; 16
    172c:	32 e0       	ldi	r19, 0x02	; 2
    172e:	f8 01       	movw	r30, r16
    1730:	b7 fe       	sbrs	r11, 7
    1732:	07 c0       	rjmp	.+14     	; 0x1742 <vfprintf+0x2ae>
    1734:	60 81       	ld	r22, Z
    1736:	71 81       	ldd	r23, Z+1	; 0x01
    1738:	82 81       	ldd	r24, Z+2	; 0x02
    173a:	93 81       	ldd	r25, Z+3	; 0x03
    173c:	0c 5f       	subi	r16, 0xFC	; 252
    173e:	1f 4f       	sbci	r17, 0xFF	; 255
    1740:	06 c0       	rjmp	.+12     	; 0x174e <vfprintf+0x2ba>
    1742:	60 81       	ld	r22, Z
    1744:	71 81       	ldd	r23, Z+1	; 0x01
    1746:	80 e0       	ldi	r24, 0x00	; 0
    1748:	90 e0       	ldi	r25, 0x00	; 0
    174a:	0e 5f       	subi	r16, 0xFE	; 254
    174c:	1f 4f       	sbci	r17, 0xFF	; 255
    174e:	a4 01       	movw	r20, r8
    1750:	0e 94 92 0c 	call	0x1924	; 0x1924 <__ultoa_invert>
    1754:	a8 2e       	mov	r10, r24
    1756:	a8 18       	sub	r10, r8
    1758:	8f e7       	ldi	r24, 0x7F	; 127
    175a:	68 2e       	mov	r6, r24
    175c:	6b 20       	and	r6, r11
    175e:	66 fe       	sbrs	r6, 6
    1760:	0b c0       	rjmp	.+22     	; 0x1778 <vfprintf+0x2e4>
    1762:	36 2d       	mov	r19, r6
    1764:	3e 7f       	andi	r19, 0xFE	; 254
    1766:	a7 14       	cp	r10, r7
    1768:	50 f4       	brcc	.+20     	; 0x177e <vfprintf+0x2ea>
    176a:	64 fe       	sbrs	r6, 4
    176c:	0a c0       	rjmp	.+20     	; 0x1782 <vfprintf+0x2ee>
    176e:	62 fc       	sbrc	r6, 2
    1770:	08 c0       	rjmp	.+16     	; 0x1782 <vfprintf+0x2ee>
    1772:	36 2d       	mov	r19, r6
    1774:	3e 7e       	andi	r19, 0xEE	; 238
    1776:	05 c0       	rjmp	.+10     	; 0x1782 <vfprintf+0x2ee>
    1778:	ba 2c       	mov	r11, r10
    177a:	36 2d       	mov	r19, r6
    177c:	03 c0       	rjmp	.+6      	; 0x1784 <vfprintf+0x2f0>
    177e:	ba 2c       	mov	r11, r10
    1780:	01 c0       	rjmp	.+2      	; 0x1784 <vfprintf+0x2f0>
    1782:	b7 2c       	mov	r11, r7
    1784:	34 ff       	sbrs	r19, 4
    1786:	0d c0       	rjmp	.+26     	; 0x17a2 <vfprintf+0x30e>
    1788:	fe 01       	movw	r30, r28
    178a:	ea 0d       	add	r30, r10
    178c:	f1 1d       	adc	r31, r1
    178e:	80 81       	ld	r24, Z
    1790:	80 33       	cpi	r24, 0x30	; 48
    1792:	11 f4       	brne	.+4      	; 0x1798 <vfprintf+0x304>
    1794:	39 7e       	andi	r19, 0xE9	; 233
    1796:	09 c0       	rjmp	.+18     	; 0x17aa <vfprintf+0x316>
    1798:	32 ff       	sbrs	r19, 2
    179a:	06 c0       	rjmp	.+12     	; 0x17a8 <vfprintf+0x314>
    179c:	b3 94       	inc	r11
    179e:	b3 94       	inc	r11
    17a0:	04 c0       	rjmp	.+8      	; 0x17aa <vfprintf+0x316>
    17a2:	83 2f       	mov	r24, r19
    17a4:	86 78       	andi	r24, 0x86	; 134
    17a6:	09 f0       	breq	.+2      	; 0x17aa <vfprintf+0x316>
    17a8:	b3 94       	inc	r11
    17aa:	33 fd       	sbrc	r19, 3
    17ac:	14 c0       	rjmp	.+40     	; 0x17d6 <vfprintf+0x342>
    17ae:	30 ff       	sbrs	r19, 0
    17b0:	0f c0       	rjmp	.+30     	; 0x17d0 <vfprintf+0x33c>
    17b2:	7a 2c       	mov	r7, r10
    17b4:	b3 14       	cp	r11, r3
    17b6:	60 f4       	brcc	.+24     	; 0x17d0 <vfprintf+0x33c>
    17b8:	73 0c       	add	r7, r3
    17ba:	7b 18       	sub	r7, r11
    17bc:	b3 2c       	mov	r11, r3
    17be:	08 c0       	rjmp	.+16     	; 0x17d0 <vfprintf+0x33c>
    17c0:	b7 01       	movw	r22, r14
    17c2:	80 e2       	ldi	r24, 0x20	; 32
    17c4:	90 e0       	ldi	r25, 0x00	; 0
    17c6:	3c 87       	std	Y+12, r19	; 0x0c
    17c8:	0e 94 66 0c 	call	0x18cc	; 0x18cc <fputc>
    17cc:	b3 94       	inc	r11
    17ce:	3c 85       	ldd	r19, Y+12	; 0x0c
    17d0:	b3 14       	cp	r11, r3
    17d2:	b0 f3       	brcs	.-20     	; 0x17c0 <vfprintf+0x32c>
    17d4:	04 c0       	rjmp	.+8      	; 0x17de <vfprintf+0x34a>
    17d6:	b3 14       	cp	r11, r3
    17d8:	10 f4       	brcc	.+4      	; 0x17de <vfprintf+0x34a>
    17da:	3b 18       	sub	r3, r11
    17dc:	01 c0       	rjmp	.+2      	; 0x17e0 <vfprintf+0x34c>
    17de:	31 2c       	mov	r3, r1
    17e0:	34 ff       	sbrs	r19, 4
    17e2:	12 c0       	rjmp	.+36     	; 0x1808 <vfprintf+0x374>
    17e4:	b7 01       	movw	r22, r14
    17e6:	80 e3       	ldi	r24, 0x30	; 48
    17e8:	90 e0       	ldi	r25, 0x00	; 0
    17ea:	3c 87       	std	Y+12, r19	; 0x0c
    17ec:	0e 94 66 0c 	call	0x18cc	; 0x18cc <fputc>
    17f0:	3c 85       	ldd	r19, Y+12	; 0x0c
    17f2:	32 ff       	sbrs	r19, 2
    17f4:	1e c0       	rjmp	.+60     	; 0x1832 <vfprintf+0x39e>
    17f6:	31 ff       	sbrs	r19, 1
    17f8:	03 c0       	rjmp	.+6      	; 0x1800 <vfprintf+0x36c>
    17fa:	88 e5       	ldi	r24, 0x58	; 88
    17fc:	90 e0       	ldi	r25, 0x00	; 0
    17fe:	02 c0       	rjmp	.+4      	; 0x1804 <vfprintf+0x370>
    1800:	88 e7       	ldi	r24, 0x78	; 120
    1802:	90 e0       	ldi	r25, 0x00	; 0
    1804:	b7 01       	movw	r22, r14
    1806:	0c c0       	rjmp	.+24     	; 0x1820 <vfprintf+0x38c>
    1808:	83 2f       	mov	r24, r19
    180a:	86 78       	andi	r24, 0x86	; 134
    180c:	91 f0       	breq	.+36     	; 0x1832 <vfprintf+0x39e>
    180e:	31 fd       	sbrc	r19, 1
    1810:	02 c0       	rjmp	.+4      	; 0x1816 <vfprintf+0x382>
    1812:	80 e2       	ldi	r24, 0x20	; 32
    1814:	01 c0       	rjmp	.+2      	; 0x1818 <vfprintf+0x384>
    1816:	8b e2       	ldi	r24, 0x2B	; 43
    1818:	37 fd       	sbrc	r19, 7
    181a:	8d e2       	ldi	r24, 0x2D	; 45
    181c:	b7 01       	movw	r22, r14
    181e:	90 e0       	ldi	r25, 0x00	; 0
    1820:	0e 94 66 0c 	call	0x18cc	; 0x18cc <fputc>
    1824:	06 c0       	rjmp	.+12     	; 0x1832 <vfprintf+0x39e>
    1826:	b7 01       	movw	r22, r14
    1828:	80 e3       	ldi	r24, 0x30	; 48
    182a:	90 e0       	ldi	r25, 0x00	; 0
    182c:	0e 94 66 0c 	call	0x18cc	; 0x18cc <fputc>
    1830:	7a 94       	dec	r7
    1832:	a7 14       	cp	r10, r7
    1834:	c0 f3       	brcs	.-16     	; 0x1826 <vfprintf+0x392>
    1836:	aa 94       	dec	r10
    1838:	f4 01       	movw	r30, r8
    183a:	ea 0d       	add	r30, r10
    183c:	f1 1d       	adc	r31, r1
    183e:	b7 01       	movw	r22, r14
    1840:	80 81       	ld	r24, Z
    1842:	90 e0       	ldi	r25, 0x00	; 0
    1844:	0e 94 66 0c 	call	0x18cc	; 0x18cc <fputc>
    1848:	a1 10       	cpse	r10, r1
    184a:	f5 cf       	rjmp	.-22     	; 0x1836 <vfprintf+0x3a2>
    184c:	06 c0       	rjmp	.+12     	; 0x185a <vfprintf+0x3c6>
    184e:	b7 01       	movw	r22, r14
    1850:	80 e2       	ldi	r24, 0x20	; 32
    1852:	90 e0       	ldi	r25, 0x00	; 0
    1854:	0e 94 66 0c 	call	0x18cc	; 0x18cc <fputc>
    1858:	3a 94       	dec	r3
    185a:	31 10       	cpse	r3, r1
    185c:	f8 cf       	rjmp	.-16     	; 0x184e <vfprintf+0x3ba>
    185e:	42 ce       	rjmp	.-892    	; 0x14e4 <vfprintf+0x50>
    1860:	f7 01       	movw	r30, r14
    1862:	26 81       	ldd	r18, Z+6	; 0x06
    1864:	37 81       	ldd	r19, Z+7	; 0x07
    1866:	02 c0       	rjmp	.+4      	; 0x186c <vfprintf+0x3d8>
    1868:	2f ef       	ldi	r18, 0xFF	; 255
    186a:	3f ef       	ldi	r19, 0xFF	; 255
    186c:	c9 01       	movw	r24, r18
    186e:	2c 96       	adiw	r28, 0x0c	; 12
    1870:	0f b6       	in	r0, 0x3f	; 63
    1872:	f8 94       	cli
    1874:	de bf       	out	0x3e, r29	; 62
    1876:	0f be       	out	0x3f, r0	; 63
    1878:	cd bf       	out	0x3d, r28	; 61
    187a:	df 91       	pop	r29
    187c:	cf 91       	pop	r28
    187e:	1f 91       	pop	r17
    1880:	0f 91       	pop	r16
    1882:	ff 90       	pop	r15
    1884:	ef 90       	pop	r14
    1886:	df 90       	pop	r13
    1888:	cf 90       	pop	r12
    188a:	bf 90       	pop	r11
    188c:	af 90       	pop	r10
    188e:	9f 90       	pop	r9
    1890:	8f 90       	pop	r8
    1892:	7f 90       	pop	r7
    1894:	6f 90       	pop	r6
    1896:	5f 90       	pop	r5
    1898:	4f 90       	pop	r4
    189a:	3f 90       	pop	r3
    189c:	2f 90       	pop	r2
    189e:	08 95       	ret

000018a0 <strnlen_P>:
    18a0:	fc 01       	movw	r30, r24
    18a2:	05 90       	lpm	r0, Z+
    18a4:	61 50       	subi	r22, 0x01	; 1
    18a6:	70 40       	sbci	r23, 0x00	; 0
    18a8:	01 10       	cpse	r0, r1
    18aa:	d8 f7       	brcc	.-10     	; 0x18a2 <strnlen_P+0x2>
    18ac:	80 95       	com	r24
    18ae:	90 95       	com	r25
    18b0:	8e 0f       	add	r24, r30
    18b2:	9f 1f       	adc	r25, r31
    18b4:	08 95       	ret

000018b6 <strnlen>:
    18b6:	fc 01       	movw	r30, r24
    18b8:	61 50       	subi	r22, 0x01	; 1
    18ba:	70 40       	sbci	r23, 0x00	; 0
    18bc:	01 90       	ld	r0, Z+
    18be:	01 10       	cpse	r0, r1
    18c0:	d8 f7       	brcc	.-10     	; 0x18b8 <strnlen+0x2>
    18c2:	80 95       	com	r24
    18c4:	90 95       	com	r25
    18c6:	8e 0f       	add	r24, r30
    18c8:	9f 1f       	adc	r25, r31
    18ca:	08 95       	ret

000018cc <fputc>:
    18cc:	0f 93       	push	r16
    18ce:	1f 93       	push	r17
    18d0:	cf 93       	push	r28
    18d2:	df 93       	push	r29
    18d4:	8c 01       	movw	r16, r24
    18d6:	eb 01       	movw	r28, r22
    18d8:	8b 81       	ldd	r24, Y+3	; 0x03
    18da:	81 fd       	sbrc	r24, 1
    18dc:	03 c0       	rjmp	.+6      	; 0x18e4 <fputc+0x18>
    18de:	0f ef       	ldi	r16, 0xFF	; 255
    18e0:	1f ef       	ldi	r17, 0xFF	; 255
    18e2:	1a c0       	rjmp	.+52     	; 0x1918 <fputc+0x4c>
    18e4:	82 ff       	sbrs	r24, 2
    18e6:	0d c0       	rjmp	.+26     	; 0x1902 <fputc+0x36>
    18e8:	2e 81       	ldd	r18, Y+6	; 0x06
    18ea:	3f 81       	ldd	r19, Y+7	; 0x07
    18ec:	8c 81       	ldd	r24, Y+4	; 0x04
    18ee:	9d 81       	ldd	r25, Y+5	; 0x05
    18f0:	28 17       	cp	r18, r24
    18f2:	39 07       	cpc	r19, r25
    18f4:	64 f4       	brge	.+24     	; 0x190e <fputc+0x42>
    18f6:	e8 81       	ld	r30, Y
    18f8:	f9 81       	ldd	r31, Y+1	; 0x01
    18fa:	01 93       	st	Z+, r16
    18fc:	f9 83       	std	Y+1, r31	; 0x01
    18fe:	e8 83       	st	Y, r30
    1900:	06 c0       	rjmp	.+12     	; 0x190e <fputc+0x42>
    1902:	e8 85       	ldd	r30, Y+8	; 0x08
    1904:	f9 85       	ldd	r31, Y+9	; 0x09
    1906:	80 2f       	mov	r24, r16
    1908:	09 95       	icall
    190a:	89 2b       	or	r24, r25
    190c:	41 f7       	brne	.-48     	; 0x18de <fputc+0x12>
    190e:	8e 81       	ldd	r24, Y+6	; 0x06
    1910:	9f 81       	ldd	r25, Y+7	; 0x07
    1912:	01 96       	adiw	r24, 0x01	; 1
    1914:	9f 83       	std	Y+7, r25	; 0x07
    1916:	8e 83       	std	Y+6, r24	; 0x06
    1918:	c8 01       	movw	r24, r16
    191a:	df 91       	pop	r29
    191c:	cf 91       	pop	r28
    191e:	1f 91       	pop	r17
    1920:	0f 91       	pop	r16
    1922:	08 95       	ret

00001924 <__ultoa_invert>:
    1924:	fa 01       	movw	r30, r20
    1926:	aa 27       	eor	r26, r26
    1928:	28 30       	cpi	r18, 0x08	; 8
    192a:	51 f1       	breq	.+84     	; 0x1980 <__ultoa_invert+0x5c>
    192c:	20 31       	cpi	r18, 0x10	; 16
    192e:	81 f1       	breq	.+96     	; 0x1990 <__ultoa_invert+0x6c>
    1930:	e8 94       	clt
    1932:	6f 93       	push	r22
    1934:	6e 7f       	andi	r22, 0xFE	; 254
    1936:	6e 5f       	subi	r22, 0xFE	; 254
    1938:	7f 4f       	sbci	r23, 0xFF	; 255
    193a:	8f 4f       	sbci	r24, 0xFF	; 255
    193c:	9f 4f       	sbci	r25, 0xFF	; 255
    193e:	af 4f       	sbci	r26, 0xFF	; 255
    1940:	b1 e0       	ldi	r27, 0x01	; 1
    1942:	3e d0       	rcall	.+124    	; 0x19c0 <__ultoa_invert+0x9c>
    1944:	b4 e0       	ldi	r27, 0x04	; 4
    1946:	3c d0       	rcall	.+120    	; 0x19c0 <__ultoa_invert+0x9c>
    1948:	67 0f       	add	r22, r23
    194a:	78 1f       	adc	r23, r24
    194c:	89 1f       	adc	r24, r25
    194e:	9a 1f       	adc	r25, r26
    1950:	a1 1d       	adc	r26, r1
    1952:	68 0f       	add	r22, r24
    1954:	79 1f       	adc	r23, r25
    1956:	8a 1f       	adc	r24, r26
    1958:	91 1d       	adc	r25, r1
    195a:	a1 1d       	adc	r26, r1
    195c:	6a 0f       	add	r22, r26
    195e:	71 1d       	adc	r23, r1
    1960:	81 1d       	adc	r24, r1
    1962:	91 1d       	adc	r25, r1
    1964:	a1 1d       	adc	r26, r1
    1966:	20 d0       	rcall	.+64     	; 0x19a8 <__ultoa_invert+0x84>
    1968:	09 f4       	brne	.+2      	; 0x196c <__ultoa_invert+0x48>
    196a:	68 94       	set
    196c:	3f 91       	pop	r19
    196e:	2a e0       	ldi	r18, 0x0A	; 10
    1970:	26 9f       	mul	r18, r22
    1972:	11 24       	eor	r1, r1
    1974:	30 19       	sub	r19, r0
    1976:	30 5d       	subi	r19, 0xD0	; 208
    1978:	31 93       	st	Z+, r19
    197a:	de f6       	brtc	.-74     	; 0x1932 <__ultoa_invert+0xe>
    197c:	cf 01       	movw	r24, r30
    197e:	08 95       	ret
    1980:	46 2f       	mov	r20, r22
    1982:	47 70       	andi	r20, 0x07	; 7
    1984:	40 5d       	subi	r20, 0xD0	; 208
    1986:	41 93       	st	Z+, r20
    1988:	b3 e0       	ldi	r27, 0x03	; 3
    198a:	0f d0       	rcall	.+30     	; 0x19aa <__ultoa_invert+0x86>
    198c:	c9 f7       	brne	.-14     	; 0x1980 <__ultoa_invert+0x5c>
    198e:	f6 cf       	rjmp	.-20     	; 0x197c <__ultoa_invert+0x58>
    1990:	46 2f       	mov	r20, r22
    1992:	4f 70       	andi	r20, 0x0F	; 15
    1994:	40 5d       	subi	r20, 0xD0	; 208
    1996:	4a 33       	cpi	r20, 0x3A	; 58
    1998:	18 f0       	brcs	.+6      	; 0x19a0 <__ultoa_invert+0x7c>
    199a:	49 5d       	subi	r20, 0xD9	; 217
    199c:	31 fd       	sbrc	r19, 1
    199e:	40 52       	subi	r20, 0x20	; 32
    19a0:	41 93       	st	Z+, r20
    19a2:	02 d0       	rcall	.+4      	; 0x19a8 <__ultoa_invert+0x84>
    19a4:	a9 f7       	brne	.-22     	; 0x1990 <__ultoa_invert+0x6c>
    19a6:	ea cf       	rjmp	.-44     	; 0x197c <__ultoa_invert+0x58>
    19a8:	b4 e0       	ldi	r27, 0x04	; 4
    19aa:	a6 95       	lsr	r26
    19ac:	97 95       	ror	r25
    19ae:	87 95       	ror	r24
    19b0:	77 95       	ror	r23
    19b2:	67 95       	ror	r22
    19b4:	ba 95       	dec	r27
    19b6:	c9 f7       	brne	.-14     	; 0x19aa <__ultoa_invert+0x86>
    19b8:	00 97       	sbiw	r24, 0x00	; 0
    19ba:	61 05       	cpc	r22, r1
    19bc:	71 05       	cpc	r23, r1
    19be:	08 95       	ret
    19c0:	9b 01       	movw	r18, r22
    19c2:	ac 01       	movw	r20, r24
    19c4:	0a 2e       	mov	r0, r26
    19c6:	06 94       	lsr	r0
    19c8:	57 95       	ror	r21
    19ca:	47 95       	ror	r20
    19cc:	37 95       	ror	r19
    19ce:	27 95       	ror	r18
    19d0:	ba 95       	dec	r27
    19d2:	c9 f7       	brne	.-14     	; 0x19c6 <__ultoa_invert+0xa2>
    19d4:	62 0f       	add	r22, r18
    19d6:	73 1f       	adc	r23, r19
    19d8:	84 1f       	adc	r24, r20
    19da:	95 1f       	adc	r25, r21
    19dc:	a0 1d       	adc	r26, r0
    19de:	08 95       	ret

000019e0 <_exit>:
    19e0:	f8 94       	cli

000019e2 <__stop_program>:
    19e2:	ff cf       	rjmp	.-2      	; 0x19e2 <__stop_program>
